Archive member included because of file (symbol)

/opt/devkitpro/libogc/lib/wii/libwiiuse.a(wpad.o)
                              main.o (WPAD_SetIdleTimeout)
/opt/devkitpro/libogc/lib/wii/libwiiuse.a(dynamics.o)
                              /opt/devkitpro/libogc/lib/wii/libwiiuse.a(wpad.o) (calculate_gforce)
/opt/devkitpro/libogc/lib/wii/libwiiuse.a(io_wii.o)
                              /opt/devkitpro/libogc/lib/wii/libwiiuse.a(wpad.o) (wiiuse_disconnect)
/opt/devkitpro/libogc/lib/wii/libwiiuse.a(ir.o)
                              /opt/devkitpro/libogc/lib/wii/libwiiuse.a(wpad.o) (wiiuse_set_ir_vres)
/opt/devkitpro/libogc/lib/wii/libwiiuse.a(wiiuse.o)
                              /opt/devkitpro/libogc/lib/wii/libwiiuse.a(wpad.o) (wiiuse_set_flags)
/opt/devkitpro/libogc/lib/wii/libwiiuse.a(events.o)
                              /opt/devkitpro/libogc/lib/wii/libwiiuse.a(io_wii.o) (parse_event)
/opt/devkitpro/libogc/lib/wii/libwiiuse.a(guitar_hero_3.o)
                              /opt/devkitpro/libogc/lib/wii/libwiiuse.a(events.o) (guitar_hero_3_event)
/opt/devkitpro/libogc/lib/wii/libwiiuse.a(io.o)
                              /opt/devkitpro/libogc/lib/wii/libwiiuse.a(events.o) (wiiuse_disable_expansion)
/opt/devkitpro/libogc/lib/wii/libwiiuse.a(nunchuk.o)
                              /opt/devkitpro/libogc/lib/wii/libwiiuse.a(events.o) (nunchuk_event)
/opt/devkitpro/libogc/lib/wii/libwiiuse.a(classic.o)
                              /opt/devkitpro/libogc/lib/wii/libwiiuse.a(events.o) (classic_ctrl_event)
/opt/devkitpro/libogc/lib/wii/libbte.a(bte.o)
                              /opt/devkitpro/libogc/lib/wii/libwiiuse.a(io_wii.o) (bte_arg)
/opt/devkitpro/libogc/lib/wii/libbte.a(hci.o)
                              /opt/devkitpro/libogc/lib/wii/libbte.a(bte.o) (hci_arg)
/opt/devkitpro/libogc/lib/wii/libbte.a(l2cap.o)
                              /opt/devkitpro/libogc/lib/wii/libbte.a(hci.o) (lp_connect_ind)
/opt/devkitpro/libogc/lib/wii/libbte.a(btmemb.o)
                              /opt/devkitpro/libogc/lib/wii/libbte.a(bte.o) (btmemb_alloc)
/opt/devkitpro/libogc/lib/wii/libbte.a(btmemr.o)
                              /opt/devkitpro/libogc/lib/wii/libbte.a(hci.o) (btmemr_init)
/opt/devkitpro/libogc/lib/wii/libbte.a(btpbuf.o)
                              /opt/devkitpro/libogc/lib/wii/libbte.a(hci.o) (btpbuf_header)
/opt/devkitpro/libogc/lib/wii/libbte.a(physbusif.o)
                              /opt/devkitpro/libogc/lib/wii/libbte.a(bte.o) (physbusif_close)
/opt/devkitpro/libogc/lib/wii/libogc.a(lwp_queue.o)
                              /opt/devkitpro/libogc/lib/wii/libwiiuse.a(io_wii.o) (__lwp_queue_initialize)
/opt/devkitpro/libogc/lib/wii/libogc.a(lwp_threads.o)
                              /opt/devkitpro/libogc/lib/wii/libwiiuse.a(wpad.o) (_thread_dispatch_disable_level)
/opt/devkitpro/libogc/lib/wii/libogc.a(lwp.o)
                              /opt/devkitpro/libogc/lib/wii/libbte.a(bte.o) (LWP_ThreadSignal)
/opt/devkitpro/libogc/lib/wii/libogc.a(lwp_handler.o)
                              /opt/devkitpro/libogc/lib/wii/libogc.a(lwp_threads.o) (_cpu_context_save_fp)
/opt/devkitpro/libogc/lib/wii/libogc.a(lwp_stack.o)
                              /opt/devkitpro/libogc/lib/wii/libogc.a(lwp_threads.o) (__lwp_stack_free)
/opt/devkitpro/libogc/lib/wii/libogc.a(lwp_watchdog.o)
                              /opt/devkitpro/libogc/lib/wii/libogc.a(lwp_threads.o) (_wd_ticks_queue)
/opt/devkitpro/libogc/lib/wii/libogc.a(lwp_wkspace.o)
                              /opt/devkitpro/libogc/lib/wii/libwiiuse.a(io_wii.o) (__wkspace_heap)
/opt/devkitpro/libogc/lib/wii/libogc.a(lwp_objmgr.o)
                              /opt/devkitpro/libogc/lib/wii/libogc.a(lwp.o) (__lwp_objmgr_getnoprotection)
/opt/devkitpro/libogc/lib/wii/libogc.a(lwp_heap.o)
                              /opt/devkitpro/libogc/lib/wii/libogc.a(lwp_wkspace.o) (__lwp_heap_init)
/opt/devkitpro/libogc/lib/wii/libogc.a(sys_state.o)
                              /opt/devkitpro/libogc/lib/wii/libogc.a(lwp_threads.o) (_sys_state_curr)
/opt/devkitpro/libogc/lib/wii/libogc.a(irq.o)
                              /opt/devkitpro/libogc/lib/wii/libwiiuse.a(io_wii.o) (IRQ_Disable)
/opt/devkitpro/libogc/lib/wii/libogc.a(video.o)
                              GRRLIB.o (VIDEO_Flush)
/opt/devkitpro/libogc/lib/wii/libogc.a(system.o)
                              /opt/devkitpro/libogc/lib/wii/libogc.a(video.o) (__SYS_LockSram)
/opt/devkitpro/libogc/lib/wii/libogc.a(system_asm.o)
                              /opt/devkitpro/libogc/lib/wii/libogc.a(system.o) (__realmode)
/opt/devkitpro/libogc/lib/wii/libogc.a(cond.o)
                              /opt/devkitpro/libogc/lib/wii/libogc.a(system.o) (__lwp_cond_init)
/opt/devkitpro/libogc/lib/wii/libogc.a(gx.o)
                              GRRLIB.o (GX_SetViewport)
/opt/devkitpro/libogc/lib/wii/libogc.a(gu.o)
                              GRRLIB.o (guOrtho)
/opt/devkitpro/libogc/lib/wii/libogc.a(gu_psasm.o)
                              GRRLIB.o (ps_guMtxConcat)
/opt/devkitpro/libogc/lib/wii/libogc.a(decrementer.o)
                              /opt/devkitpro/libogc/lib/wii/libogc.a(system.o) (__decrementer_init)
/opt/devkitpro/libogc/lib/wii/libogc.a(message.o)
                              /opt/devkitpro/libogc/lib/wii/libogc.a(system.o) (__lwp_mqbox_init)
/opt/devkitpro/libogc/lib/wii/libogc.a(si.o)
                              /opt/devkitpro/libogc/lib/wii/libogc.a(system.o) (__si_init)
/opt/devkitpro/libogc/lib/wii/libogc.a(ipc.o)
                              /opt/devkitpro/libogc/lib/wii/libbte.a(physbusif.o) (__IPC_ClntInit)
/opt/devkitpro/libogc/lib/wii/libogc.a(ogc_crt0.o)
                              (_start)
/opt/devkitpro/libogc/lib/wii/libogc.a(timesupp.o)
                              /opt/devkitpro/libogc/lib/wii/libogc.a(system.o) (gettick)
/opt/devkitpro/libogc/lib/wii/libogc.a(lock_supp.o)
                              /opt/devkitpro/libogc/lib/wii/libogc.a(system.o) (__libogc_lock_release)
/opt/devkitpro/libogc/lib/wii/libogc.a(newlibc.o)
                              /opt/devkitpro/libogc/lib/wii/libogc.a(lwp_threads.o) (__libc_create_hook)
/opt/devkitpro/libogc/lib/wii/libogc.a(sbrk.o)
                              /opt/devkitpro/libogc/lib/wii/libogc.a(system.o) (__libogc_sbrk_r)
/opt/devkitpro/libogc/lib/wii/libogc.a(malloc_lock.o)
                              /opt/devkitpro/libogc/lib/wii/libogc.a(system.o) (__libogc_malloc_lock)
/opt/devkitpro/libogc/lib/wii/libogc.a(stm.o)
                              /opt/devkitpro/libogc/lib/wii/libogc.a(system.o) (STM_RegisterEventHandler)
/opt/devkitpro/libogc/lib/wii/libogc.a(ios.o)
                              /opt/devkitpro/libogc/lib/wii/libogc.a(system.o) (__IOS_ShutdownSubsystems)
/opt/devkitpro/libogc/lib/wii/libogc.a(es.o)
                              /opt/devkitpro/libogc/lib/wii/libogc.a(system.o) (__ES_Reset)
/opt/devkitpro/libogc/lib/wii/libogc.a(usb.o)
                              /opt/devkitpro/libogc/lib/wii/libbte.a(physbusif.o) (USB_CloseDeviceAsync)
/opt/devkitpro/libogc/lib/wii/libogc.a(argv.o)
                              /opt/devkitpro/libogc/lib/wii/libogc.a(ogc_crt0.o) (__CheckARGV)
/opt/devkitpro/libogc/lib/wii/libogc.a(conf.o)
                              /opt/devkitpro/libogc/lib/wii/libwiiuse.a(wpad.o) (CONF_GetPadDevices)
/opt/devkitpro/libogc/lib/wii/libogc.a(lwp_priority.o)
                              /opt/devkitpro/libogc/lib/wii/libogc.a(system.o) (__lwp_priority_init)
/opt/devkitpro/libogc/lib/wii/libogc.a(lwp_threadq.o)
                              /opt/devkitpro/libogc/lib/wii/libogc.a(cond.o) (__lwp_threadqueue_first)
/opt/devkitpro/libogc/lib/wii/libogc.a(lwp_messages.o)
                              /opt/devkitpro/libogc/lib/wii/libogc.a(message.o) (__lwpmq_close)
/opt/devkitpro/libogc/lib/wii/libogc.a(lwp_mutex.o)
                              /opt/devkitpro/libogc/lib/wii/libogc.a(malloc_lock.o) (__lwp_mutex_initialize)
/opt/devkitpro/libogc/lib/wii/libogc.a(exception.o)
                              /opt/devkitpro/libogc/lib/wii/libogc.a(system.o) (__libogc_exit)
/opt/devkitpro/libogc/lib/wii/libogc.a(irq_handler.o)
                              /opt/devkitpro/libogc/lib/wii/libogc.a(exception.o) (irq_exceptionhandler)
/opt/devkitpro/libogc/lib/wii/libogc.a(semaphore.o)
                              /opt/devkitpro/libogc/lib/wii/libogc.a(system.o) (__lwp_sema_init)
/opt/devkitpro/libogc/lib/wii/libogc.a(video_asm.o)
                              /opt/devkitpro/libogc/lib/wii/libogc.a(video.o) (__VIClearFramebuffer)
/opt/devkitpro/libogc/lib/wii/libogc.a(pad.o)
                              /opt/devkitpro/libogc/lib/wii/libogc.a(system.o) (__PADDisableRecalibration)
/opt/devkitpro/libogc/lib/wii/libogc.a(exi.o)
                              /opt/devkitpro/libogc/lib/wii/libogc.a(system.o) (EXI_Sync)
/opt/devkitpro/libogc/lib/wii/libogc.a(mutex.o)
                              /opt/devkitpro/libogc/lib/wii/libogc.a(system.o) (__lwp_mutex_init)
/opt/devkitpro/libogc/lib/wii/libogc.a(cache_asm.o)
                              /opt/devkitpro/libogc/lib/wii/libogc.a(system_asm.o) (DCEnable)
/opt/devkitpro/libogc/lib/wii/libogc.a(decrementer_handler.o)
                              /opt/devkitpro/libogc/lib/wii/libogc.a(exception.o) (dec_exceptionhandler)
/opt/devkitpro/libogc/lib/wii/libogc.a(kprintf.o)
                              /opt/devkitpro/libogc/lib/wii/libogc.a(exception.o) (kprintf)
/opt/devkitpro/libogc/lib/wii/libogc.a(console.o)
                              /opt/devkitpro/libogc/lib/wii/libogc.a(exception.o) (__console_init)
/opt/devkitpro/libogc/lib/wii/libogc.a(lwp_sema.o)
                              /opt/devkitpro/libogc/lib/wii/libogc.a(semaphore.o) (__lwp_sema_flush)
/opt/devkitpro/libogc/lib/wii/libogc.a(exception_handler.o)
                              /opt/devkitpro/libogc/lib/wii/libogc.a(exception.o) (exceptionhandler_start)
/opt/devkitpro/libogc/lib/wii/libogc.a(console_font_8x16.o)
                              /opt/devkitpro/libogc/lib/wii/libogc.a(console.o) (console_font_8x16)
/opt/devkitpro/devkitPPC/lib/gcc/powerpc-gekko/4.2.3/../../../../powerpc-gekko/lib/libm.a(lib_a-s_atan2.o)
                              /opt/devkitpro/libogc/lib/wii/libwiiuse.a(ir.o) (atan2)
/opt/devkitpro/devkitPPC/lib/gcc/powerpc-gekko/4.2.3/../../../../powerpc-gekko/lib/libm.a(lib_a-s_atangent.o)
                              /opt/devkitpro/devkitPPC/lib/gcc/powerpc-gekko/4.2.3/../../../../powerpc-gekko/lib/libm.a(lib_a-s_atan2.o) (atangent)
/opt/devkitpro/devkitPPC/lib/gcc/powerpc-gekko/4.2.3/../../../../powerpc-gekko/lib/libm.a(lib_a-s_cos.o)
                              /opt/devkitpro/libogc/lib/wii/libwiiuse.a(ir.o) (cos)
/opt/devkitpro/devkitPPC/lib/gcc/powerpc-gekko/4.2.3/../../../../powerpc-gekko/lib/libm.a(lib_a-s_fabs.o)
                              /opt/devkitpro/devkitPPC/lib/gcc/powerpc-gekko/4.2.3/../../../../powerpc-gekko/lib/libm.a(lib_a-s_atangent.o) (fabs)
/opt/devkitpro/devkitPPC/lib/gcc/powerpc-gekko/4.2.3/../../../../powerpc-gekko/lib/libm.a(lib_a-s_frexp.o)
                              /opt/devkitpro/devkitPPC/lib/gcc/powerpc-gekko/4.2.3/../../../../powerpc-gekko/lib/libm.a(lib_a-s_atangent.o) (frexp)
/opt/devkitpro/devkitPPC/lib/gcc/powerpc-gekko/4.2.3/../../../../powerpc-gekko/lib/libm.a(lib_a-s_mathcnst.o)
                              /opt/devkitpro/devkitPPC/lib/gcc/powerpc-gekko/4.2.3/../../../../powerpc-gekko/lib/libm.a(lib_a-s_atangent.o) (z_rooteps)
/opt/devkitpro/devkitPPC/lib/gcc/powerpc-gekko/4.2.3/../../../../powerpc-gekko/lib/libm.a(lib_a-s_numtest.o)
                              /opt/devkitpro/devkitPPC/lib/gcc/powerpc-gekko/4.2.3/../../../../powerpc-gekko/lib/libm.a(lib_a-s_fabs.o) (numtest)
/opt/devkitpro/devkitPPC/lib/gcc/powerpc-gekko/4.2.3/../../../../powerpc-gekko/lib/libm.a(lib_a-s_sin.o)
                              /opt/devkitpro/libogc/lib/wii/libwiiuse.a(ir.o) (sin)
/opt/devkitpro/devkitPPC/lib/gcc/powerpc-gekko/4.2.3/../../../../powerpc-gekko/lib/libm.a(lib_a-s_sine.o)
                              /opt/devkitpro/devkitPPC/lib/gcc/powerpc-gekko/4.2.3/../../../../powerpc-gekko/lib/libm.a(lib_a-s_cos.o) (sine)
/opt/devkitpro/devkitPPC/lib/gcc/powerpc-gekko/4.2.3/../../../../powerpc-gekko/lib/libm.a(lib_a-s_sqrt.o)
                              /opt/devkitpro/libogc/lib/wii/libwiiuse.a(dynamics.o) (sqrt)
/opt/devkitpro/devkitPPC/lib/gcc/powerpc-gekko/4.2.3/../../../../powerpc-gekko/lib/libm.a(lib_a-sf_atan.o)
                              /opt/devkitpro/libogc/lib/wii/libwiiuse.a(dynamics.o) (atanf)
/opt/devkitpro/devkitPPC/lib/gcc/powerpc-gekko/4.2.3/../../../../powerpc-gekko/lib/libm.a(lib_a-sf_atan2.o)
                              /opt/devkitpro/libogc/lib/wii/libwiiuse.a(dynamics.o) (atan2f)
/opt/devkitpro/devkitPPC/lib/gcc/powerpc-gekko/4.2.3/../../../../powerpc-gekko/lib/libm.a(lib_a-sf_atangent.o)
                              /opt/devkitpro/devkitPPC/lib/gcc/powerpc-gekko/4.2.3/../../../../powerpc-gekko/lib/libm.a(lib_a-sf_atan.o) (atangentf)
/opt/devkitpro/devkitPPC/lib/gcc/powerpc-gekko/4.2.3/../../../../powerpc-gekko/lib/libm.a(lib_a-sf_cos.o)
                              /opt/devkitpro/libogc/lib/wii/libwiiuse.a(ir.o) (cosf)
/opt/devkitpro/devkitPPC/lib/gcc/powerpc-gekko/4.2.3/../../../../powerpc-gekko/lib/libm.a(lib_a-sf_fabs.o)
                              /opt/devkitpro/devkitPPC/lib/gcc/powerpc-gekko/4.2.3/../../../../powerpc-gekko/lib/libm.a(lib_a-sf_atangent.o) (fabsf)
/opt/devkitpro/devkitPPC/lib/gcc/powerpc-gekko/4.2.3/../../../../powerpc-gekko/lib/libm.a(lib_a-sf_frexp.o)
                              /opt/devkitpro/devkitPPC/lib/gcc/powerpc-gekko/4.2.3/../../../../powerpc-gekko/lib/libm.a(lib_a-sf_atangent.o) (frexpf)
/opt/devkitpro/devkitPPC/lib/gcc/powerpc-gekko/4.2.3/../../../../powerpc-gekko/lib/libm.a(lib_a-sf_isinff.o)
                              /opt/devkitpro/libogc/lib/wii/libwiiuse.a(dynamics.o) (__isinff)
/opt/devkitpro/devkitPPC/lib/gcc/powerpc-gekko/4.2.3/../../../../powerpc-gekko/lib/libm.a(lib_a-sf_isnanf.o)
                              /opt/devkitpro/libogc/lib/wii/libwiiuse.a(dynamics.o) (__isnanf)
/opt/devkitpro/devkitPPC/lib/gcc/powerpc-gekko/4.2.3/../../../../powerpc-gekko/lib/libm.a(lib_a-sf_numtest.o)
                              /opt/devkitpro/devkitPPC/lib/gcc/powerpc-gekko/4.2.3/../../../../powerpc-gekko/lib/libm.a(lib_a-sf_atan.o) (numtestf)
/opt/devkitpro/devkitPPC/lib/gcc/powerpc-gekko/4.2.3/../../../../powerpc-gekko/lib/libm.a(lib_a-sf_sin.o)
                              /opt/devkitpro/libogc/lib/wii/libwiiuse.a(ir.o) (sinf)
/opt/devkitpro/devkitPPC/lib/gcc/powerpc-gekko/4.2.3/../../../../powerpc-gekko/lib/libm.a(lib_a-sf_sine.o)
                              /opt/devkitpro/devkitPPC/lib/gcc/powerpc-gekko/4.2.3/../../../../powerpc-gekko/lib/libm.a(lib_a-sf_cos.o) (sinef)
/opt/devkitpro/devkitPPC/lib/gcc/powerpc-gekko/4.2.3/../../../../powerpc-gekko/lib/libm.a(lib_a-sf_sqrt.o)
                              /opt/devkitpro/libogc/lib/wii/libwiiuse.a(ir.o) (sqrtf)
/opt/devkitpro/devkitPPC/lib/gcc/powerpc-gekko/4.2.3/../../../../powerpc-gekko/lib/libm.a(lib_a-sf_tan.o)
                              /opt/devkitpro/libogc/lib/wii/libogc.a(gu.o) (tanf)
/opt/devkitpro/devkitPPC/lib/gcc/powerpc-gekko/4.2.3/../../../../powerpc-gekko/lib/libm.a(lib_a-s_ispos.o)
                              /opt/devkitpro/devkitPPC/lib/gcc/powerpc-gekko/4.2.3/../../../../powerpc-gekko/lib/libm.a(lib_a-s_sqrt.o) (ispos)
/opt/devkitpro/devkitPPC/lib/gcc/powerpc-gekko/4.2.3/../../../../powerpc-gekko/lib/libm.a(lib_a-s_ldexp.o)
                              /opt/devkitpro/devkitPPC/lib/gcc/powerpc-gekko/4.2.3/../../../../powerpc-gekko/lib/libm.a(lib_a-s_sqrt.o) (ldexp)
/opt/devkitpro/devkitPPC/lib/gcc/powerpc-gekko/4.2.3/../../../../powerpc-gekko/lib/libm.a(lib_a-sf_ispos.o)
                              /opt/devkitpro/devkitPPC/lib/gcc/powerpc-gekko/4.2.3/../../../../powerpc-gekko/lib/libm.a(lib_a-sf_sqrt.o) (isposf)
/opt/devkitpro/devkitPPC/lib/gcc/powerpc-gekko/4.2.3/../../../../powerpc-gekko/lib/libm.a(lib_a-sf_ldexp.o)
                              /opt/devkitpro/devkitPPC/lib/gcc/powerpc-gekko/4.2.3/../../../../powerpc-gekko/lib/libm.a(lib_a-sf_sqrt.o) (ldexpf)
/opt/devkitpro/devkitPPC/lib/gcc/powerpc-gekko/4.2.3/libgcc.a(_udivdi3.o)
                              /opt/devkitpro/libogc/lib/wii/libogc.a(system.o) (__udivdi3)
/opt/devkitpro/devkitPPC/lib/gcc/powerpc-gekko/4.2.3/../../../../powerpc-gekko/lib/libsysbase.a(abort.o)
                              /opt/devkitpro/libogc/lib/wii/libogc.a(newlibc.o) (abort)
/opt/devkitpro/devkitPPC/lib/gcc/powerpc-gekko/4.2.3/../../../../powerpc-gekko/lib/libsysbase.a(iosupport.o)
                              /opt/devkitpro/libogc/lib/wii/libogc.a(console.o) (devoptab_list)
/opt/devkitpro/devkitPPC/lib/gcc/powerpc-gekko/4.2.3/../../../../powerpc-gekko/lib/libsysbase.a(_exit.o)
                              /opt/devkitpro/devkitPPC/lib/gcc/powerpc-gekko/4.2.3/../../../../powerpc-gekko/lib/libsysbase.a(abort.o) (_exit)
/opt/devkitpro/devkitPPC/lib/gcc/powerpc-gekko/4.2.3/../../../../powerpc-gekko/lib/libsysbase.a(build_argv.o)
                              /opt/devkitpro/libogc/lib/wii/libogc.a(argv.o) (build_argv)
/opt/devkitpro/devkitPPC/lib/gcc/powerpc-gekko/4.2.3/../../../../powerpc-gekko/lib/libsysbase.a(syscall_support.o)
                              /opt/devkitpro/libogc/lib/wii/libogc.a(system.o) (__syscalls)
/opt/devkitpro/devkitPPC/lib/gcc/powerpc-gekko/4.2.3/../../../../powerpc-gekko/lib/libc.a(lib_a-calloc.o)
                              /opt/devkitpro/libogc/lib/wii/libogc.a(newlibc.o) (calloc)
/opt/devkitpro/devkitPPC/lib/gcc/powerpc-gekko/4.2.3/../../../../powerpc-gekko/lib/libc.a(lib_a-callocr.o)
                              /opt/devkitpro/devkitPPC/lib/gcc/powerpc-gekko/4.2.3/../../../../powerpc-gekko/lib/libc.a(lib_a-calloc.o) (_calloc_r)
/opt/devkitpro/devkitPPC/lib/gcc/powerpc-gekko/4.2.3/../../../../powerpc-gekko/lib/libc.a(lib_a-ctype_.o)
                              /opt/devkitpro/libogc/lib/wii/libogc.a(ipc.o) (__ctype_ptr)
/opt/devkitpro/devkitPPC/lib/gcc/powerpc-gekko/4.2.3/../../../../powerpc-gekko/lib/libc.a(lib_a-errno.o)
                              /opt/devkitpro/devkitPPC/lib/gcc/powerpc-gekko/4.2.3/../../../../powerpc-gekko/lib/libm.a(lib_a-s_atangent.o) (__errno)
/opt/devkitpro/devkitPPC/lib/gcc/powerpc-gekko/4.2.3/../../../../powerpc-gekko/lib/libc.a(lib_a-exit.o)
                              /opt/devkitpro/devkitPPC/lib/gcc/powerpc-gekko/4.2.3/../../../../powerpc-gekko/lib/crtmain.o (exit)
/opt/devkitpro/devkitPPC/lib/gcc/powerpc-gekko/4.2.3/../../../../powerpc-gekko/lib/libc.a(lib_a-fprintf.o)
                              /opt/devkitpro/libogc/lib/wii/libwiiuse.a(events.o) (fprintf)
/opt/devkitpro/devkitPPC/lib/gcc/powerpc-gekko/4.2.3/../../../../powerpc-gekko/lib/libc.a(lib_a-fwrite.o)
                              /opt/devkitpro/libogc/lib/wii/libwiiuse.a(ir.o) (fwrite)
/opt/devkitpro/devkitPPC/lib/gcc/powerpc-gekko/4.2.3/../../../../powerpc-gekko/lib/libc.a(lib_a-impure.o)
                              /opt/devkitpro/libogc/lib/wii/libwiiuse.a(ir.o) (_impure_ptr)
/opt/devkitpro/devkitPPC/lib/gcc/powerpc-gekko/4.2.3/../../../../powerpc-gekko/lib/libc.a(lib_a-malign.o)
                              GRRLIB.o (memalign)
/opt/devkitpro/devkitPPC/lib/gcc/powerpc-gekko/4.2.3/../../../../powerpc-gekko/lib/libc.a(lib_a-malignr.o)
                              /opt/devkitpro/devkitPPC/lib/gcc/powerpc-gekko/4.2.3/../../../../powerpc-gekko/lib/libc.a(lib_a-malign.o) (_memalign_r)
/opt/devkitpro/devkitPPC/lib/gcc/powerpc-gekko/4.2.3/../../../../powerpc-gekko/lib/libc.a(lib_a-malloc.o)
                              /opt/devkitpro/libogc/lib/wii/libbte.a(bte.o) (free)
/opt/devkitpro/devkitPPC/lib/gcc/powerpc-gekko/4.2.3/../../../../powerpc-gekko/lib/libc.a(lib_a-mallocr.o)
                              /opt/devkitpro/devkitPPC/lib/gcc/powerpc-gekko/4.2.3/../../../../powerpc-gekko/lib/libc.a(lib_a-callocr.o) (_malloc_r)
/opt/devkitpro/devkitPPC/lib/gcc/powerpc-gekko/4.2.3/../../../../powerpc-gekko/lib/libc.a(lib_a-memcmp.o)
                              /opt/devkitpro/libogc/lib/wii/libogc.a(conf.o) (memcmp)
/opt/devkitpro/devkitPPC/lib/gcc/powerpc-gekko/4.2.3/../../../../powerpc-gekko/lib/libc.a(lib_a-memcpy.o)
                              /opt/devkitpro/libogc/lib/wii/libwiiuse.a(wpad.o) (memcpy)
/opt/devkitpro/devkitPPC/lib/gcc/powerpc-gekko/4.2.3/../../../../powerpc-gekko/lib/libc.a(lib_a-memmove.o)
                              /opt/devkitpro/libogc/lib/wii/libogc.a(argv.o) (memmove)
/opt/devkitpro/devkitPPC/lib/gcc/powerpc-gekko/4.2.3/../../../../powerpc-gekko/lib/libc.a(lib_a-memset.o)
                              /opt/devkitpro/libogc/lib/wii/libwiiuse.a(wpad.o) (memset)
/opt/devkitpro/devkitPPC/lib/gcc/powerpc-gekko/4.2.3/../../../../powerpc-gekko/lib/libc.a(lib_a-printf.o)
                              /opt/devkitpro/libogc/lib/wii/libbte.a(bte.o) (printf)
/opt/devkitpro/devkitPPC/lib/gcc/powerpc-gekko/4.2.3/../../../../powerpc-gekko/lib/libc.a(lib_a-puts.o)
                              /opt/devkitpro/libogc/lib/wii/libbte.a(hci.o) (puts)
/opt/devkitpro/devkitPPC/lib/gcc/powerpc-gekko/4.2.3/../../../../powerpc-gekko/lib/libc.a(lib_a-reent.o)
                              /opt/devkitpro/libogc/lib/wii/libogc.a(newlibc.o) (_wrapup_reent)
/opt/devkitpro/devkitPPC/lib/gcc/powerpc-gekko/4.2.3/../../../../powerpc-gekko/lib/libc.a(lib_a-setvbuf.o)
                              /opt/devkitpro/libogc/lib/wii/libogc.a(console.o) (setvbuf)
/opt/devkitpro/devkitPPC/lib/gcc/powerpc-gekko/4.2.3/../../../../powerpc-gekko/lib/libc.a(lib_a-snprintf.o)
                              /opt/devkitpro/libogc/lib/wii/libogc.a(usb.o) (snprintf)
/opt/devkitpro/devkitPPC/lib/gcc/powerpc-gekko/4.2.3/../../../../powerpc-gekko/lib/libc.a(lib_a-strchr.o)
                              /opt/devkitpro/libogc/lib/wii/libogc.a(conf.o) (strchr)
/opt/devkitpro/devkitPPC/lib/gcc/powerpc-gekko/4.2.3/../../../../powerpc-gekko/lib/libc.a(lib_a-strcmp.o)
                              /opt/devkitpro/libogc/lib/wii/libogc.a(conf.o) (strcmp)
/opt/devkitpro/devkitPPC/lib/gcc/powerpc-gekko/4.2.3/../../../../powerpc-gekko/lib/libc.a(lib_a-strlen.o)
                              GRRLIB.o (strlen)
/opt/devkitpro/devkitPPC/lib/gcc/powerpc-gekko/4.2.3/../../../../powerpc-gekko/lib/libc.a(lib_a-strncmp.o)
                              /opt/devkitpro/devkitPPC/lib/gcc/powerpc-gekko/4.2.3/../../../../powerpc-gekko/lib/libsysbase.a(iosupport.o) (strncmp)
/opt/devkitpro/devkitPPC/lib/gcc/powerpc-gekko/4.2.3/../../../../powerpc-gekko/lib/libc.a(lib_a-strncpy.o)
                              /opt/devkitpro/libogc/lib/wii/libogc.a(usb.o) (strncpy)
/opt/devkitpro/devkitPPC/lib/gcc/powerpc-gekko/4.2.3/../../../../powerpc-gekko/lib/libc.a(lib_a-strnlen.o)
                              /opt/devkitpro/libogc/lib/wii/libogc.a(ipc.o) (strnlen)
/opt/devkitpro/devkitPPC/lib/gcc/powerpc-gekko/4.2.3/../../../../powerpc-gekko/lib/libc.a(lib_a-syswrite.o)
                              /opt/devkitpro/libogc/lib/wii/libogc.a(kprintf.o) (write)
/opt/devkitpro/devkitPPC/lib/gcc/powerpc-gekko/4.2.3/../../../../powerpc-gekko/lib/libc.a(lib_a-vfprintf.o)
                              /opt/devkitpro/devkitPPC/lib/gcc/powerpc-gekko/4.2.3/../../../../powerpc-gekko/lib/libc.a(lib_a-fprintf.o) (_vfprintf_r)
/opt/devkitpro/devkitPPC/lib/gcc/powerpc-gekko/4.2.3/../../../../powerpc-gekko/lib/libc.a(lib_a-vsprintf.o)
                              GRRLIB.o (vsprintf)
/opt/devkitpro/devkitPPC/lib/gcc/powerpc-gekko/4.2.3/../../../../powerpc-gekko/lib/libc.a(lib_a-wcrtomb.o)
                              /opt/devkitpro/devkitPPC/lib/gcc/powerpc-gekko/4.2.3/../../../../powerpc-gekko/lib/libc.a(lib_a-vfprintf.o) (_wcrtomb_r)
/opt/devkitpro/devkitPPC/lib/gcc/powerpc-gekko/4.2.3/../../../../powerpc-gekko/lib/libc.a(lib_a-wcsrtombs.o)
                              /opt/devkitpro/devkitPPC/lib/gcc/powerpc-gekko/4.2.3/../../../../powerpc-gekko/lib/libc.a(lib_a-vfprintf.o) (_wcsrtombs_r)
/opt/devkitpro/devkitPPC/lib/gcc/powerpc-gekko/4.2.3/../../../../powerpc-gekko/lib/libc.a(lib_a-wctomb_r.o)
                              /opt/devkitpro/devkitPPC/lib/gcc/powerpc-gekko/4.2.3/../../../../powerpc-gekko/lib/libc.a(lib_a-wcrtomb.o) (_wctomb_r)
/opt/devkitpro/devkitPPC/lib/gcc/powerpc-gekko/4.2.3/../../../../powerpc-gekko/lib/libc.a(lib_a-wsetup.o)
                              /opt/devkitpro/devkitPPC/lib/gcc/powerpc-gekko/4.2.3/../../../../powerpc-gekko/lib/libc.a(lib_a-vfprintf.o) (__swsetup_r)
/opt/devkitpro/devkitPPC/lib/gcc/powerpc-gekko/4.2.3/../../../../powerpc-gekko/lib/libc.a(lib_a-__call_atexit.o)
                              /opt/devkitpro/devkitPPC/lib/gcc/powerpc-gekko/4.2.3/../../../../powerpc-gekko/lib/libc.a(lib_a-exit.o) (__call_exitprocs)
/opt/devkitpro/devkitPPC/lib/gcc/powerpc-gekko/4.2.3/../../../../powerpc-gekko/lib/libc.a(lib_a-dtoa.o)
                              /opt/devkitpro/devkitPPC/lib/gcc/powerpc-gekko/4.2.3/../../../../powerpc-gekko/lib/libc.a(lib_a-vfprintf.o) (_dtoa_r)
/opt/devkitpro/devkitPPC/lib/gcc/powerpc-gekko/4.2.3/../../../../powerpc-gekko/lib/libc.a(lib_a-fflush.o)
                              /opt/devkitpro/devkitPPC/lib/gcc/powerpc-gekko/4.2.3/../../../../powerpc-gekko/lib/libc.a(lib_a-setvbuf.o) (_fflush_r)
/opt/devkitpro/devkitPPC/lib/gcc/powerpc-gekko/4.2.3/../../../../powerpc-gekko/lib/libc.a(lib_a-findfp.o)
                              /opt/devkitpro/devkitPPC/lib/gcc/powerpc-gekko/4.2.3/../../../../powerpc-gekko/lib/libc.a(lib_a-setvbuf.o) (_cleanup_r)
/opt/devkitpro/devkitPPC/lib/gcc/powerpc-gekko/4.2.3/../../../../powerpc-gekko/lib/libc.a(lib_a-freer.o)
                              /opt/devkitpro/devkitPPC/lib/gcc/powerpc-gekko/4.2.3/../../../../powerpc-gekko/lib/libc.a(lib_a-malignr.o) (_free_r)
/opt/devkitpro/devkitPPC/lib/gcc/powerpc-gekko/4.2.3/../../../../powerpc-gekko/lib/libc.a(lib_a-fvwrite.o)
                              /opt/devkitpro/devkitPPC/lib/gcc/powerpc-gekko/4.2.3/../../../../powerpc-gekko/lib/libc.a(lib_a-fwrite.o) (__sfvwrite_r)
/opt/devkitpro/devkitPPC/lib/gcc/powerpc-gekko/4.2.3/../../../../powerpc-gekko/lib/libc.a(lib_a-fwalk.o)
                              /opt/devkitpro/devkitPPC/lib/gcc/powerpc-gekko/4.2.3/../../../../powerpc-gekko/lib/libc.a(lib_a-fflush.o) (_fwalk_reent)
/opt/devkitpro/devkitPPC/lib/gcc/powerpc-gekko/4.2.3/../../../../powerpc-gekko/lib/libc.a(lib_a-locale.o)
                              /opt/devkitpro/devkitPPC/lib/gcc/powerpc-gekko/4.2.3/../../../../powerpc-gekko/lib/libc.a(lib_a-vfprintf.o) (_localeconv_r)
/opt/devkitpro/devkitPPC/lib/gcc/powerpc-gekko/4.2.3/../../../../powerpc-gekko/lib/libc.a(lib_a-makebuf.o)
                              /opt/devkitpro/devkitPPC/lib/gcc/powerpc-gekko/4.2.3/../../../../powerpc-gekko/lib/libc.a(lib_a-wsetup.o) (__smakebuf_r)
/opt/devkitpro/devkitPPC/lib/gcc/powerpc-gekko/4.2.3/../../../../powerpc-gekko/lib/libc.a(lib_a-mbtowc_r.o)
                              /opt/devkitpro/devkitPPC/lib/gcc/powerpc-gekko/4.2.3/../../../../powerpc-gekko/lib/libc.a(lib_a-vfprintf.o) (_mbtowc_r)
/opt/devkitpro/devkitPPC/lib/gcc/powerpc-gekko/4.2.3/../../../../powerpc-gekko/lib/libc.a(lib_a-memchr.o)
                              /opt/devkitpro/devkitPPC/lib/gcc/powerpc-gekko/4.2.3/../../../../powerpc-gekko/lib/libc.a(lib_a-vfprintf.o) (memchr)
/opt/devkitpro/devkitPPC/lib/gcc/powerpc-gekko/4.2.3/../../../../powerpc-gekko/lib/libc.a(lib_a-mprec.o)
                              /opt/devkitpro/devkitPPC/lib/gcc/powerpc-gekko/4.2.3/../../../../powerpc-gekko/lib/libc.a(lib_a-dtoa.o) (_Bfree)
/opt/devkitpro/devkitPPC/lib/gcc/powerpc-gekko/4.2.3/../../../../powerpc-gekko/lib/libc.a(lib_a-reallocr.o)
                              /opt/devkitpro/devkitPPC/lib/gcc/powerpc-gekko/4.2.3/../../../../powerpc-gekko/lib/libc.a(lib_a-fvwrite.o) (_realloc_r)
/opt/devkitpro/devkitPPC/lib/gcc/powerpc-gekko/4.2.3/../../../../powerpc-gekko/lib/libc.a(lib_a-s_isinfd.o)
                              /opt/devkitpro/devkitPPC/lib/gcc/powerpc-gekko/4.2.3/../../../../powerpc-gekko/lib/libc.a(lib_a-vfprintf.o) (__isinfd)
/opt/devkitpro/devkitPPC/lib/gcc/powerpc-gekko/4.2.3/../../../../powerpc-gekko/lib/libc.a(lib_a-s_isnand.o)
                              /opt/devkitpro/devkitPPC/lib/gcc/powerpc-gekko/4.2.3/../../../../powerpc-gekko/lib/libc.a(lib_a-vfprintf.o) (__isnand)
/opt/devkitpro/devkitPPC/lib/gcc/powerpc-gekko/4.2.3/../../../../powerpc-gekko/lib/libc.a(lib_a-stdio.o)
                              /opt/devkitpro/devkitPPC/lib/gcc/powerpc-gekko/4.2.3/../../../../powerpc-gekko/lib/libc.a(lib_a-findfp.o) (__sclose)
/opt/devkitpro/devkitPPC/lib/gcc/powerpc-gekko/4.2.3/../../../../powerpc-gekko/lib/libc.a(lib_a-strcpy.o)
                              /opt/devkitpro/devkitPPC/lib/gcc/powerpc-gekko/4.2.3/../../../../powerpc-gekko/lib/libc.a(lib_a-locale.o) (strcpy)
/opt/devkitpro/devkitPPC/lib/gcc/powerpc-gekko/4.2.3/../../../../powerpc-gekko/lib/libc.a(lib_a-fclose.o)
                              /opt/devkitpro/devkitPPC/lib/gcc/powerpc-gekko/4.2.3/../../../../powerpc-gekko/lib/libc.a(lib_a-findfp.o) (fclose)
/opt/devkitpro/devkitPPC/lib/gcc/powerpc-gekko/4.2.3/../../../../powerpc-gekko/lib/libsysbase.a(close.o)
                              /opt/devkitpro/devkitPPC/lib/gcc/powerpc-gekko/4.2.3/../../../../powerpc-gekko/lib/libc.a(lib_a-stdio.o) (_close_r)
/opt/devkitpro/devkitPPC/lib/gcc/powerpc-gekko/4.2.3/../../../../powerpc-gekko/lib/libsysbase.a(fstat.o)
                              /opt/devkitpro/devkitPPC/lib/gcc/powerpc-gekko/4.2.3/../../../../powerpc-gekko/lib/libc.a(lib_a-makebuf.o) (_fstat_r)
/opt/devkitpro/devkitPPC/lib/gcc/powerpc-gekko/4.2.3/../../../../powerpc-gekko/lib/libsysbase.a(isatty.o)
                              /opt/devkitpro/devkitPPC/lib/gcc/powerpc-gekko/4.2.3/../../../../powerpc-gekko/lib/libc.a(lib_a-makebuf.o) (isatty)
/opt/devkitpro/devkitPPC/lib/gcc/powerpc-gekko/4.2.3/../../../../powerpc-gekko/lib/libsysbase.a(lseek.o)
                              /opt/devkitpro/devkitPPC/lib/gcc/powerpc-gekko/4.2.3/../../../../powerpc-gekko/lib/libc.a(lib_a-stdio.o) (_lseek_r)
/opt/devkitpro/devkitPPC/lib/gcc/powerpc-gekko/4.2.3/../../../../powerpc-gekko/lib/libsysbase.a(read.o)
                              /opt/devkitpro/devkitPPC/lib/gcc/powerpc-gekko/4.2.3/../../../../powerpc-gekko/lib/libc.a(lib_a-stdio.o) (_read_r)
/opt/devkitpro/devkitPPC/lib/gcc/powerpc-gekko/4.2.3/../../../../powerpc-gekko/lib/libsysbase.a(sbrk.o)
                              /opt/devkitpro/devkitPPC/lib/gcc/powerpc-gekko/4.2.3/../../../../powerpc-gekko/lib/libc.a(lib_a-mallocr.o) (_sbrk_r)
/opt/devkitpro/devkitPPC/lib/gcc/powerpc-gekko/4.2.3/../../../../powerpc-gekko/lib/libsysbase.a(write.o)
                              /opt/devkitpro/devkitPPC/lib/gcc/powerpc-gekko/4.2.3/../../../../powerpc-gekko/lib/libc.a(lib_a-syswrite.o) (_write_r)
/opt/devkitpro/devkitPPC/lib/gcc/powerpc-gekko/4.2.3/../../../../powerpc-gekko/lib/libsysbase.a(flock.o)
                              /opt/devkitpro/devkitPPC/lib/gcc/powerpc-gekko/4.2.3/../../../../powerpc-gekko/lib/libc.a(lib_a-fwrite.o) (__funlockfile)
/opt/devkitpro/devkitPPC/lib/gcc/powerpc-gekko/4.2.3/../../../../powerpc-gekko/lib/libsysbase.a(handle_manager.o)
                              /opt/devkitpro/devkitPPC/lib/gcc/powerpc-gekko/4.2.3/../../../../powerpc-gekko/lib/libsysbase.a(close.o) (__get_handle)
/opt/devkitpro/devkitPPC/lib/gcc/powerpc-gekko/4.2.3/libgcc.a(_umoddi3.o)
                              /opt/devkitpro/devkitPPC/lib/gcc/powerpc-gekko/4.2.3/../../../../powerpc-gekko/lib/libc.a(lib_a-vfprintf.o) (__umoddi3)

Allocating common symbols
Common symbol       size              file

_wd_sync_count      0x4               /opt/devkitpro/libogc/lib/wii/libogc.a(lwp_watchdog.o)
_context_switch_want
                    0x1               /opt/devkitpro/libogc/lib/wii/libogc.a(lwp_threads.o)
rmode               0x4               GRRLIB.o
l2cap_active_pcbs   0x4               /opt/devkitpro/libogc/lib/wii/libbte.a(l2cap.o)
_wd_sync_level      0x4               /opt/devkitpro/libogc/lib/wii/libogc.a(lwp_watchdog.o)
_gx_dl_fifo         0x80              /opt/devkitpro/libogc/lib/wii/libogc.a(gx.o)
_exceptionhandlertable
                    0x3c              /opt/devkitpro/libogc/lib/wii/libogc.a(exception.o)
_thread_dispatch_disable_level
                    0x4               /opt/devkitpro/libogc/lib/wii/libogc.a(lwp_threads.o)
_lwp_sema_objects   0x28              /opt/devkitpro/libogc/lib/wii/libogc.a(semaphore.o)
_lwp_cond_objects   0x28              /opt/devkitpro/libogc/lib/wii/libogc.a(cond.o)
_prio_bitmap        0x40              /opt/devkitpro/libogc/lib/wii/libogc.a(lwp_priority.o)
_wd_ticks_queue     0xc               /opt/devkitpro/libogc/lib/wii/libogc.a(lwp_watchdog.o)
__outstr            0x100             /opt/devkitpro/libogc/lib/wii/libogc.a(kprintf.o)
_wd_ticks_since_boot
                    0x4               /opt/devkitpro/libogc/lib/wii/libogc.a(lwp_watchdog.o)
_sys_state_curr     0x4               /opt/devkitpro/libogc/lib/wii/libogc.a(sys_state.o)
_lwp_thr_ready      0xc00             /opt/devkitpro/libogc/lib/wii/libogc.a(lwp_threads.o)
libc_globl_reent    0x400             /opt/devkitpro/libogc/lib/wii/libogc.a(newlibc.o)
sigid_nxt           0x1               /opt/devkitpro/libogc/lib/wii/libbte.a(l2cap.o)
_prio_major_bitmap  0x4               /opt/devkitpro/libogc/lib/wii/libogc.a(lwp_priority.o)
__wkspace_heap      0x1c              /opt/devkitpro/libogc/lib/wii/libogc.a(lwp_wkspace.o)
sramcntrl           0x50              /opt/devkitpro/libogc/lib/wii/libogc.a(system.o)
_lwp_mqbox_objects  0x28              /opt/devkitpro/libogc/lib/wii/libogc.a(message.o)
_gx_saved_data      0x500             /opt/devkitpro/libogc/lib/wii/libogc.a(gx.o)
libc_reentrant      0x4               /opt/devkitpro/libogc/lib/wii/libogc.a(newlibc.o)
_lwp_thr_objects    0x28              /opt/devkitpro/libogc/lib/wii/libogc.a(lwp.o)
_lwp_mutex_objects  0x28              /opt/devkitpro/libogc/lib/wii/libogc.a(mutex.o)
core_context        0x2d0             /opt/devkitpro/libogc/lib/wii/libogc.a(lwp_threads.o)
_lwp_tqueue_objects
                    0x28              /opt/devkitpro/libogc/lib/wii/libogc.a(lwp.o)

Discarded input sections

 .text          0x00000000        0x0 /opt/devkitpro/devkitPPC/lib/gcc/powerpc-gekko/4.2.3/ecrti.o
 .data          0x00000000        0x0 /opt/devkitpro/devkitPPC/lib/gcc/powerpc-gekko/4.2.3/ecrti.o
 .bss           0x00000000        0x0 /opt/devkitpro/devkitPPC/lib/gcc/powerpc-gekko/4.2.3/ecrti.o
 .got           0x00000000        0x0 /opt/devkitpro/devkitPPC/lib/gcc/powerpc-gekko/4.2.3/ecrti.o
 .got1          0x00000000        0x0 /opt/devkitpro/devkitPPC/lib/gcc/powerpc-gekko/4.2.3/ecrti.o
 .got2          0x00000000        0x0 /opt/devkitpro/devkitPPC/lib/gcc/powerpc-gekko/4.2.3/ecrti.o
 .fixup         0x00000000        0x0 /opt/devkitpro/devkitPPC/lib/gcc/powerpc-gekko/4.2.3/ecrti.o
 .sbss          0x00000000        0x0 /opt/devkitpro/devkitPPC/lib/gcc/powerpc-gekko/4.2.3/ecrti.o
 .sbss2         0x00000000        0x0 /opt/devkitpro/devkitPPC/lib/gcc/powerpc-gekko/4.2.3/ecrti.o
 .gcc_except_table
                0x00000000        0x0 /opt/devkitpro/devkitPPC/lib/gcc/powerpc-gekko/4.2.3/ecrti.o
 .data          0x00000000        0x0 /opt/devkitpro/devkitPPC/lib/gcc/powerpc-gekko/4.2.3/../../../../powerpc-gekko/lib/crtmain.o
 .bss           0x00000000        0x0 /opt/devkitpro/devkitPPC/lib/gcc/powerpc-gekko/4.2.3/../../../../powerpc-gekko/lib/crtmain.o
 .text          0x00000000        0x0 GRRLIB.o
 .data          0x00000000        0x0 GRRLIB.o
 .bss           0x00000000        0x0 GRRLIB.o
 .text.GRRLIB_NGone
                0x00000000        0x0 GRRLIB.o
 .text.GRRLIB_Rectangle
                0x00000000        0x0 GRRLIB.o
 .text.GRRLIB_Line
                0x00000000        0x0 GRRLIB.o
 .text.GRRLIB_DrawChar
                0x00000000        0x0 GRRLIB.o
 .text.GRRLIB_Printf
                0x00000000        0x0 GRRLIB.o
 .text.GRRLIB_DrawTile
                0x00000000        0x0 GRRLIB.o
 .text.GRRLIB_DrawImg
                0x00000000        0x0 GRRLIB.o
 .rodata.C.1.6828
                0x00000000        0x0 GRRLIB.o
 .rodata.C.0.6782
                0x00000000        0x0 GRRLIB.o
 .rodata.C.2.6873
                0x00000000        0x0 GRRLIB.o
 .text          0x00000000        0x0 main.o
 .data          0x00000000        0x0 main.o
 .bss           0x00000000        0x0 main.o
 .text          0x00000000        0x0 /opt/devkitpro/libogc/lib/wii/libwiiuse.a(wpad.o)
 .data          0x00000000        0x0 /opt/devkitpro/libogc/lib/wii/libwiiuse.a(wpad.o)
 .bss           0x00000000        0x0 /opt/devkitpro/libogc/lib/wii/libwiiuse.a(wpad.o)
 .text.WPAD_DroppedEvents
                0x00000000        0x0 /opt/devkitpro/libogc/lib/wii/libwiiuse.a(wpad.o)
 .text.WPAD_GetStatus
                0x00000000        0x0 /opt/devkitpro/libogc/lib/wii/libwiiuse.a(wpad.o)
 .text.WPAD_Probe
                0x00000000        0x0 /opt/devkitpro/libogc/lib/wii/libwiiuse.a(wpad.o)
 .text.WPAD_SetEventBufs
                0x00000000        0x0 /opt/devkitpro/libogc/lib/wii/libwiiuse.a(wpad.o)
 .text.WPAD_SetIdleThresholds
                0x00000000        0x0 /opt/devkitpro/libogc/lib/wii/libwiiuse.a(wpad.o)
 .text.WPAD_Data
                0x00000000        0x0 /opt/devkitpro/libogc/lib/wii/libwiiuse.a(wpad.o)
 .text.WPAD_ButtonsUp
                0x00000000        0x0 /opt/devkitpro/libogc/lib/wii/libwiiuse.a(wpad.o)
 .text.WPAD_ButtonsHeld
                0x00000000        0x0 /opt/devkitpro/libogc/lib/wii/libwiiuse.a(wpad.o)
 .text.WPAD_Orientation
                0x00000000        0x0 /opt/devkitpro/libogc/lib/wii/libwiiuse.a(wpad.o)
 .text.WPAD_GForce
                0x00000000        0x0 /opt/devkitpro/libogc/lib/wii/libwiiuse.a(wpad.o)
 .text.WPAD_Accel
                0x00000000        0x0 /opt/devkitpro/libogc/lib/wii/libwiiuse.a(wpad.o)
 .text.WPAD_Expansion
                0x00000000        0x0 /opt/devkitpro/libogc/lib/wii/libwiiuse.a(wpad.o)
 .text.WPAD_Rumble
                0x00000000        0x0 /opt/devkitpro/libogc/lib/wii/libwiiuse.a(wpad.o)
 .text.WPAD_Disconnect
                0x00000000        0x0 /opt/devkitpro/libogc/lib/wii/libwiiuse.a(wpad.o)
 .text.WPAD_Flush
                0x00000000        0x0 /opt/devkitpro/libogc/lib/wii/libwiiuse.a(wpad.o)
 .text          0x00000000        0x0 /opt/devkitpro/libogc/lib/wii/libwiiuse.a(dynamics.o)
 .data          0x00000000        0x0 /opt/devkitpro/libogc/lib/wii/libwiiuse.a(dynamics.o)
 .bss           0x00000000        0x0 /opt/devkitpro/libogc/lib/wii/libwiiuse.a(dynamics.o)
 .text          0x00000000        0x0 /opt/devkitpro/libogc/lib/wii/libwiiuse.a(io_wii.o)
 .data          0x00000000        0x0 /opt/devkitpro/libogc/lib/wii/libwiiuse.a(io_wii.o)
 .bss           0x00000000        0x0 /opt/devkitpro/libogc/lib/wii/libwiiuse.a(io_wii.o)
 .text.wiiuse_sensorbar_enable
                0x00000000        0x0 /opt/devkitpro/libogc/lib/wii/libwiiuse.a(io_wii.o)
 .text          0x00000000        0x0 /opt/devkitpro/libogc/lib/wii/libwiiuse.a(ir.o)
 .data          0x00000000        0x0 /opt/devkitpro/libogc/lib/wii/libwiiuse.a(ir.o)
 .bss           0x00000000        0x0 /opt/devkitpro/libogc/lib/wii/libwiiuse.a(ir.o)
 .text          0x00000000        0x0 /opt/devkitpro/libogc/lib/wii/libwiiuse.a(wiiuse.o)
 .data          0x00000000        0x0 /opt/devkitpro/libogc/lib/wii/libwiiuse.a(wiiuse.o)
 .bss           0x00000000        0x0 /opt/devkitpro/libogc/lib/wii/libwiiuse.a(wiiuse.o)
 .text.wiiuse_toggle_rumble
                0x00000000        0x0 /opt/devkitpro/libogc/lib/wii/libwiiuse.a(wiiuse.o)
 .text.wiiuse_rumble
                0x00000000        0x0 /opt/devkitpro/libogc/lib/wii/libwiiuse.a(wiiuse.o)
 .text.wiiuse_write_streamdata
                0x00000000        0x0 /opt/devkitpro/libogc/lib/wii/libwiiuse.a(wiiuse.o)
 .text          0x00000000        0x0 /opt/devkitpro/libogc/lib/wii/libwiiuse.a(events.o)
 .data          0x00000000        0x0 /opt/devkitpro/libogc/lib/wii/libwiiuse.a(events.o)
 .bss           0x00000000        0x0 /opt/devkitpro/libogc/lib/wii/libwiiuse.a(events.o)
 .text.idle_cycle
                0x00000000        0x0 /opt/devkitpro/libogc/lib/wii/libwiiuse.a(events.o)
 .text          0x00000000        0x0 /opt/devkitpro/libogc/lib/wii/libwiiuse.a(guitar_hero_3.o)
 .data          0x00000000        0x0 /opt/devkitpro/libogc/lib/wii/libwiiuse.a(guitar_hero_3.o)
 .bss           0x00000000        0x0 /opt/devkitpro/libogc/lib/wii/libwiiuse.a(guitar_hero_3.o)
 .text          0x00000000        0x0 /opt/devkitpro/libogc/lib/wii/libwiiuse.a(io.o)
 .data          0x00000000        0x0 /opt/devkitpro/libogc/lib/wii/libwiiuse.a(io.o)
 .bss           0x00000000        0x0 /opt/devkitpro/libogc/lib/wii/libwiiuse.a(io.o)
 .text          0x00000000        0x0 /opt/devkitpro/libogc/lib/wii/libwiiuse.a(nunchuk.o)
 .data          0x00000000        0x0 /opt/devkitpro/libogc/lib/wii/libwiiuse.a(nunchuk.o)
 .bss           0x00000000        0x0 /opt/devkitpro/libogc/lib/wii/libwiiuse.a(nunchuk.o)
 .text          0x00000000        0x0 /opt/devkitpro/libogc/lib/wii/libwiiuse.a(classic.o)
 .data          0x00000000        0x0 /opt/devkitpro/libogc/lib/wii/libwiiuse.a(classic.o)
 .bss           0x00000000        0x0 /opt/devkitpro/libogc/lib/wii/libwiiuse.a(classic.o)
 .text          0x00000000        0x0 /opt/devkitpro/libogc/lib/wii/libbte.a(bte.o)
 .data          0x00000000        0x0 /opt/devkitpro/libogc/lib/wii/libbte.a(bte.o)
 .bss           0x00000000        0x0 /opt/devkitpro/libogc/lib/wii/libbte.a(bte.o)
 .text.pin_req  0x00000000        0x0 /opt/devkitpro/libogc/lib/wii/libbte.a(bte.o)
 .text.link_key_not
                0x00000000        0x0 /opt/devkitpro/libogc/lib/wii/libbte.a(bte.o)
 .text.bte_sendmessage
                0x00000000        0x0 /opt/devkitpro/libogc/lib/wii/libbte.a(bte.o)
 .text.bte_inquiry_ex
                0x00000000        0x0 /opt/devkitpro/libogc/lib/wii/libbte.a(bte.o)
 .text.bte_inquiry
                0x00000000        0x0 /opt/devkitpro/libogc/lib/wii/libbte.a(bte.o)
 .text.bte_inquiry_complete
                0x00000000        0x0 /opt/devkitpro/libogc/lib/wii/libbte.a(bte.o)
 .text          0x00000000        0x0 /opt/devkitpro/libogc/lib/wii/libbte.a(hci.o)
 .data          0x00000000        0x0 /opt/devkitpro/libogc/lib/wii/libbte.a(hci.o)
 .bss           0x00000000        0x0 /opt/devkitpro/libogc/lib/wii/libbte.a(hci.o)
 .text.hci_pin_req
                0x00000000        0x0 /opt/devkitpro/libogc/lib/wii/libbte.a(hci.o)
 .text.hci_link_key_not
                0x00000000        0x0 /opt/devkitpro/libogc/lib/wii/libbte.a(hci.o)
 .text.hci_conn_req
                0x00000000        0x0 /opt/devkitpro/libogc/lib/wii/libbte.a(hci.o)
 .text.lp_is_connected
                0x00000000        0x0 /opt/devkitpro/libogc/lib/wii/libbte.a(hci.o)
 .text.hci_reg_dev_info
                0x00000000        0x0 /opt/devkitpro/libogc/lib/wii/libbte.a(hci.o)
 .text.hci_set_hc_to_h_fc
                0x00000000        0x0 /opt/devkitpro/libogc/lib/wii/libbte.a(hci.o)
 .text.hci_read_current_lap
                0x00000000        0x0 /opt/devkitpro/libogc/lib/wii/libbte.a(hci.o)
 .text.hci_write_stored_link_key
                0x00000000        0x0 /opt/devkitpro/libogc/lib/wii/libbte.a(hci.o)
 .text.hci_reject_connection_request
                0x00000000        0x0 /opt/devkitpro/libogc/lib/wii/libbte.a(hci.o)
 .text.hci_set_event_mask
                0x00000000        0x0 /opt/devkitpro/libogc/lib/wii/libbte.a(hci.o)
 .text.hci_exit_periodic_inquiry
                0x00000000        0x0 /opt/devkitpro/libogc/lib/wii/libbte.a(hci.o)
 .text.hci_set_event_filter
                0x00000000        0x0 /opt/devkitpro/libogc/lib/wii/libbte.a(hci.o)
 .text.hci_pin_code_request_reply
                0x00000000        0x0 /opt/devkitpro/libogc/lib/wii/libbte.a(hci.o)
 .text.hci_inquiry
                0x00000000        0x0 /opt/devkitpro/libogc/lib/wii/libbte.a(hci.o)
 .text.lp_connect_req
                0x00000000        0x0 /opt/devkitpro/libogc/lib/wii/libbte.a(hci.o)
 .text.hci_sniff_mode
                0x00000000        0x0 /opt/devkitpro/libogc/lib/wii/libbte.a(hci.o)
 .text.hci_read_remote_name
                0x00000000        0x0 /opt/devkitpro/libogc/lib/wii/libbte.a(hci.o)
 .text.hci_periodic_inquiry
                0x00000000        0x0 /opt/devkitpro/libogc/lib/wii/libbte.a(hci.o)
 .sbss.hci_tmp_key
                0x00000000        0x0 /opt/devkitpro/libogc/lib/wii/libbte.a(hci.o)
 .text          0x00000000        0x0 /opt/devkitpro/libogc/lib/wii/libbte.a(l2cap.o)
 .data          0x00000000        0x0 /opt/devkitpro/libogc/lib/wii/libbte.a(l2cap.o)
 .bss           0x00000000        0x0 /opt/devkitpro/libogc/lib/wii/libbte.a(l2cap.o)
 .text.l2cap_timeout_ind
                0x00000000        0x0 /opt/devkitpro/libogc/lib/wii/libbte.a(l2cap.o)
 .text.l2ca_ping
                0x00000000        0x0 /opt/devkitpro/libogc/lib/wii/libbte.a(l2cap.o)
 .text.l2ca_connect_req
                0x00000000        0x0 /opt/devkitpro/libogc/lib/wii/libbte.a(l2cap.o)
 .text          0x00000000        0x0 /opt/devkitpro/libogc/lib/wii/libbte.a(btmemb.o)
 .data          0x00000000        0x0 /opt/devkitpro/libogc/lib/wii/libbte.a(btmemb.o)
 .bss           0x00000000        0x0 /opt/devkitpro/libogc/lib/wii/libbte.a(btmemb.o)
 .text.btmemb_ref
                0x00000000        0x0 /opt/devkitpro/libogc/lib/wii/libbte.a(btmemb.o)
 .text          0x00000000        0x0 /opt/devkitpro/libogc/lib/wii/libbte.a(btmemr.o)
 .data          0x00000000        0x0 /opt/devkitpro/libogc/lib/wii/libbte.a(btmemr.o)
 .bss           0x00000000        0x0 /opt/devkitpro/libogc/lib/wii/libbte.a(btmemr.o)
 .text.btmemr_reallocm
                0x00000000        0x0 /opt/devkitpro/libogc/lib/wii/libbte.a(btmemr.o)
 .text          0x00000000        0x0 /opt/devkitpro/libogc/lib/wii/libbte.a(btpbuf.o)
 .data          0x00000000        0x0 /opt/devkitpro/libogc/lib/wii/libbte.a(btpbuf.o)
 .bss           0x00000000        0x0 /opt/devkitpro/libogc/lib/wii/libbte.a(btpbuf.o)
 .text.btpbuf_clen
                0x00000000        0x0 /opt/devkitpro/libogc/lib/wii/libbte.a(btpbuf.o)
 .text.btpbuf_queue
                0x00000000        0x0 /opt/devkitpro/libogc/lib/wii/libbte.a(btpbuf.o)
 .text.btpbuf_dequeue
                0x00000000        0x0 /opt/devkitpro/libogc/lib/wii/libbte.a(btpbuf.o)
 .text          0x00000000        0x0 /opt/devkitpro/libogc/lib/wii/libbte.a(physbusif.o)
 .data          0x00000000        0x0 /opt/devkitpro/libogc/lib/wii/libbte.a(physbusif.o)
 .bss           0x00000000        0x0 /opt/devkitpro/libogc/lib/wii/libbte.a(physbusif.o)
 .text.__ntd_set_ohci
                0x00000000        0x0 /opt/devkitpro/libogc/lib/wii/libbte.a(physbusif.o)
 .text.__ntd_set_pid_vid
                0x00000000        0x0 /opt/devkitpro/libogc/lib/wii/libbte.a(physbusif.o)
 .text          0x00000000        0x0 /opt/devkitpro/libogc/lib/wii/libogc.a(lwp_queue.o)
 .data          0x00000000        0x0 /opt/devkitpro/libogc/lib/wii/libogc.a(lwp_queue.o)
 .bss           0x00000000        0x0 /opt/devkitpro/libogc/lib/wii/libogc.a(lwp_queue.o)
 .text.__lwp_queue_extract
                0x00000000        0x0 /opt/devkitpro/libogc/lib/wii/libogc.a(lwp_queue.o)
 .text.__lwp_queue_insert
                0x00000000        0x0 /opt/devkitpro/libogc/lib/wii/libogc.a(lwp_queue.o)
 .text          0x00000000        0x0 /opt/devkitpro/libogc/lib/wii/libogc.a(lwp_threads.o)
 .data          0x00000000        0x0 /opt/devkitpro/libogc/lib/wii/libogc.a(lwp_threads.o)
 .bss           0x00000000        0x0 /opt/devkitpro/libogc/lib/wii/libogc.a(lwp_threads.o)
 .text.__lwp_thread_yield
                0x00000000        0x0 /opt/devkitpro/libogc/lib/wii/libogc.a(lwp_threads.o)
 .text.__lwp_rotate_readyqueue
                0x00000000        0x0 /opt/devkitpro/libogc/lib/wii/libogc.a(lwp_threads.o)
 .text.__lwp_thread_delayended
                0x00000000        0x0 /opt/devkitpro/libogc/lib/wii/libogc.a(lwp_threads.o)
 .text.__lwp_evaluatemode
                0x00000000        0x0 /opt/devkitpro/libogc/lib/wii/libogc.a(lwp_threads.o)
 .text          0x00000000        0x0 /opt/devkitpro/libogc/lib/wii/libogc.a(lwp.o)
 .data          0x00000000        0x0 /opt/devkitpro/libogc/lib/wii/libogc.a(lwp.o)
 .bss           0x00000000        0x0 /opt/devkitpro/libogc/lib/wii/libogc.a(lwp.o)
 .text.__lwp_thread_currentid
                0x00000000        0x0 /opt/devkitpro/libogc/lib/wii/libogc.a(lwp.o)
 .text.__lwp_thread_context
                0x00000000        0x0 /opt/devkitpro/libogc/lib/wii/libogc.a(lwp.o)
 .text.__lwp_thread_exists
                0x00000000        0x0 /opt/devkitpro/libogc/lib/wii/libogc.a(lwp.o)
 .text.__lwp_thread_isalive
                0x00000000        0x0 /opt/devkitpro/libogc/lib/wii/libogc.a(lwp.o)
 .text.LWP_JoinThread
                0x00000000        0x0 /opt/devkitpro/libogc/lib/wii/libogc.a(lwp.o)
 .text.LWP_ThreadIsSuspended
                0x00000000        0x0 /opt/devkitpro/libogc/lib/wii/libogc.a(lwp.o)
 .text.LWP_Reschedule
                0x00000000        0x0 /opt/devkitpro/libogc/lib/wii/libogc.a(lwp.o)
 .text.LWP_YieldThread
                0x00000000        0x0 /opt/devkitpro/libogc/lib/wii/libogc.a(lwp.o)
 .text.LWP_SetThreadPriority
                0x00000000        0x0 /opt/devkitpro/libogc/lib/wii/libogc.a(lwp.o)
 .text.LWP_CreateThread
                0x00000000        0x0 /opt/devkitpro/libogc/lib/wii/libogc.a(lwp.o)
 .data          0x00000000        0x0 /opt/devkitpro/libogc/lib/wii/libogc.a(lwp_handler.o)
 .bss           0x00000000        0x0 /opt/devkitpro/libogc/lib/wii/libogc.a(lwp_handler.o)
 .text          0x00000000        0x0 /opt/devkitpro/libogc/lib/wii/libogc.a(lwp_stack.o)
 .data          0x00000000        0x0 /opt/devkitpro/libogc/lib/wii/libogc.a(lwp_stack.o)
 .bss           0x00000000        0x0 /opt/devkitpro/libogc/lib/wii/libogc.a(lwp_stack.o)
 .text          0x00000000        0x0 /opt/devkitpro/libogc/lib/wii/libogc.a(lwp_watchdog.o)
 .data          0x00000000        0x0 /opt/devkitpro/libogc/lib/wii/libogc.a(lwp_watchdog.o)
 .bss           0x00000000        0x0 /opt/devkitpro/libogc/lib/wii/libogc.a(lwp_watchdog.o)
 .text.__lwp_wd_adjust
                0x00000000        0x0 /opt/devkitpro/libogc/lib/wii/libogc.a(lwp_watchdog.o)
 .text          0x00000000        0x0 /opt/devkitpro/libogc/lib/wii/libogc.a(lwp_wkspace.o)
 .data          0x00000000        0x0 /opt/devkitpro/libogc/lib/wii/libogc.a(lwp_wkspace.o)
 .bss           0x00000000        0x0 /opt/devkitpro/libogc/lib/wii/libogc.a(lwp_wkspace.o)
 .text.__lwp_wkspace_heapsize
                0x00000000        0x0 /opt/devkitpro/libogc/lib/wii/libogc.a(lwp_wkspace.o)
 .text.__lwp_wkspace_heapused
                0x00000000        0x0 /opt/devkitpro/libogc/lib/wii/libogc.a(lwp_wkspace.o)
 .text.__lwp_wkspace_heapfree
                0x00000000        0x0 /opt/devkitpro/libogc/lib/wii/libogc.a(lwp_wkspace.o)
 .bss.__wkspace_iblock
                0x00000000        0x0 /opt/devkitpro/libogc/lib/wii/libogc.a(lwp_wkspace.o)
 .text          0x00000000        0x0 /opt/devkitpro/libogc/lib/wii/libogc.a(lwp_objmgr.o)
 .data          0x00000000        0x0 /opt/devkitpro/libogc/lib/wii/libogc.a(lwp_objmgr.o)
 .bss           0x00000000        0x0 /opt/devkitpro/libogc/lib/wii/libogc.a(lwp_objmgr.o)
 .text.__lwp_objmgr_memsize
                0x00000000        0x0 /opt/devkitpro/libogc/lib/wii/libogc.a(lwp_objmgr.o)
 .text          0x00000000        0x0 /opt/devkitpro/libogc/lib/wii/libogc.a(lwp_heap.o)
 .data          0x00000000        0x0 /opt/devkitpro/libogc/lib/wii/libogc.a(lwp_heap.o)
 .bss           0x00000000        0x0 /opt/devkitpro/libogc/lib/wii/libogc.a(lwp_heap.o)
 .text.__lwp_heap_getinfo
                0x00000000        0x0 /opt/devkitpro/libogc/lib/wii/libogc.a(lwp_heap.o)
 .text          0x00000000        0x0 /opt/devkitpro/libogc/lib/wii/libogc.a(sys_state.o)
 .data          0x00000000        0x0 /opt/devkitpro/libogc/lib/wii/libogc.a(sys_state.o)
 .bss           0x00000000        0x0 /opt/devkitpro/libogc/lib/wii/libogc.a(sys_state.o)
 .text          0x00000000        0x0 /opt/devkitpro/libogc/lib/wii/libogc.a(irq.o)
 .data          0x00000000        0x0 /opt/devkitpro/libogc/lib/wii/libogc.a(irq.o)
 .bss           0x00000000        0x0 /opt/devkitpro/libogc/lib/wii/libogc.a(irq.o)
 .text.IRQ_Free
                0x00000000        0x0 /opt/devkitpro/libogc/lib/wii/libogc.a(irq.o)
 .text          0x00000000        0x0 /opt/devkitpro/libogc/lib/wii/libogc.a(video.o)
 .data          0x00000000        0x0 /opt/devkitpro/libogc/lib/wii/libogc.a(video.o)
 .bss           0x00000000        0x0 /opt/devkitpro/libogc/lib/wii/libogc.a(video.o)
 .text.VIDEO_GetNextFramebuffer
                0x00000000        0x0 /opt/devkitpro/libogc/lib/wii/libogc.a(video.o)
 .text.VIDEO_GetCurrentFramebuffer
                0x00000000        0x0 /opt/devkitpro/libogc/lib/wii/libogc.a(video.o)
 .text.VIDEO_SetPreRetraceCallback
                0x00000000        0x0 /opt/devkitpro/libogc/lib/wii/libogc.a(video.o)
 .text.VIDEO_SetPostRetraceCallback
                0x00000000        0x0 /opt/devkitpro/libogc/lib/wii/libogc.a(video.o)
 .text.VIDEO_ClearFrameBuffer
                0x00000000        0x0 /opt/devkitpro/libogc/lib/wii/libogc.a(video.o)
 .text.VIDEO_GetNextField
                0x00000000        0x0 /opt/devkitpro/libogc/lib/wii/libogc.a(video.o)
 .text.VIDEO_SetNextRightFramebuffer
                0x00000000        0x0 /opt/devkitpro/libogc/lib/wii/libogc.a(video.o)
 .data.TVPal264IntAa
                0x00000000        0x0 /opt/devkitpro/libogc/lib/wii/libogc.a(video.o)
 .data.TVPal264DsAa
                0x00000000        0x0 /opt/devkitpro/libogc/lib/wii/libogc.a(video.o)
 .data.TVNtsc480Int
                0x00000000        0x0 /opt/devkitpro/libogc/lib/wii/libogc.a(video.o)
 .data.TVNtsc240IntAa
                0x00000000        0x0 /opt/devkitpro/libogc/lib/wii/libogc.a(video.o)
 .data.TVNtsc480IntAa
                0x00000000        0x0 /opt/devkitpro/libogc/lib/wii/libogc.a(video.o)
 .data.TVEurgb60Hz480ProgSoft
                0x00000000        0x0 /opt/devkitpro/libogc/lib/wii/libogc.a(video.o)
 .data.TVEurgb60Hz480IntDf
                0x00000000        0x0 /opt/devkitpro/libogc/lib/wii/libogc.a(video.o)
 .data.TVNtsc480ProgSoft
                0x00000000        0x0 /opt/devkitpro/libogc/lib/wii/libogc.a(video.o)
 .data.TVEurgb60Hz240Int
                0x00000000        0x0 /opt/devkitpro/libogc/lib/wii/libogc.a(video.o)
 .data.TVPal528Int
                0x00000000        0x0 /opt/devkitpro/libogc/lib/wii/libogc.a(video.o)
 .data.TVNtsc480ProgAa
                0x00000000        0x0 /opt/devkitpro/libogc/lib/wii/libogc.a(video.o)
 .data.TVPal264Ds
                0x00000000        0x0 /opt/devkitpro/libogc/lib/wii/libogc.a(video.o)
 .data.TVNtsc240Int
                0x00000000        0x0 /opt/devkitpro/libogc/lib/wii/libogc.a(video.o)
 .data.TVNtsc240Ds
                0x00000000        0x0 /opt/devkitpro/libogc/lib/wii/libogc.a(video.o)
 .data.TVEurgb60Hz240IntAa
                0x00000000        0x0 /opt/devkitpro/libogc/lib/wii/libogc.a(video.o)
 .data.TVPal264Int
                0x00000000        0x0 /opt/devkitpro/libogc/lib/wii/libogc.a(video.o)
 .data.TVEurgb60Hz240Ds
                0x00000000        0x0 /opt/devkitpro/libogc/lib/wii/libogc.a(video.o)
 .data.TVEurgb60Hz480Prog
                0x00000000        0x0 /opt/devkitpro/libogc/lib/wii/libogc.a(video.o)
 .data.TVPal524IntAa
                0x00000000        0x0 /opt/devkitpro/libogc/lib/wii/libogc.a(video.o)
 .data.TVNtsc240DsAa
                0x00000000        0x0 /opt/devkitpro/libogc/lib/wii/libogc.a(video.o)
 .data.TVEurgb60Hz480ProgAa
                0x00000000        0x0 /opt/devkitpro/libogc/lib/wii/libogc.a(video.o)
 .data.TVEurgb60Hz480IntAa
                0x00000000        0x0 /opt/devkitpro/libogc/lib/wii/libogc.a(video.o)
 .data.TVEurgb60Hz240DsAa
                0x00000000        0x0 /opt/devkitpro/libogc/lib/wii/libogc.a(video.o)
 .data.TVPal574IntDfScale
                0x00000000        0x0 /opt/devkitpro/libogc/lib/wii/libogc.a(video.o)
 .text          0x00000000        0x0 /opt/devkitpro/libogc/lib/wii/libogc.a(system.o)
 .data          0x00000000        0x0 /opt/devkitpro/libogc/lib/wii/libogc.a(system.o)
 .bss           0x00000000        0x0 /opt/devkitpro/libogc/lib/wii/libogc.a(system.o)
 .text.__SYS_SyncSram
                0x00000000        0x0 /opt/devkitpro/libogc/lib/wii/libogc.a(system.o)
 .text.__sdloader_boot
                0x00000000        0x0 /opt/devkitpro/libogc/lib/wii/libogc.a(system.o)
 .text.SYS_GetArena1Size
                0x00000000        0x0 /opt/devkitpro/libogc/lib/wii/libogc.a(system.o)
 .text.SYS_AllocArena1MemLo
                0x00000000        0x0 /opt/devkitpro/libogc/lib/wii/libogc.a(system.o)
 .text.SYS_GetArena2Size
                0x00000000        0x0 /opt/devkitpro/libogc/lib/wii/libogc.a(system.o)
 .text.SYS_AllocArena2MemLo
                0x00000000        0x0 /opt/devkitpro/libogc/lib/wii/libogc.a(system.o)
 .text.SYS_GetFontTexture
                0x00000000        0x0 /opt/devkitpro/libogc/lib/wii/libogc.a(system.o)
 .text.SYS_GetFontTexel
                0x00000000        0x0 /opt/devkitpro/libogc/lib/wii/libogc.a(system.o)
 .text.SYS_SetResetCallback
                0x00000000        0x0 /opt/devkitpro/libogc/lib/wii/libogc.a(system.o)
 .text.SYS_SetPowerCallback
                0x00000000        0x0 /opt/devkitpro/libogc/lib/wii/libogc.a(system.o)
 .text.SYS_StartPMC
                0x00000000        0x0 /opt/devkitpro/libogc/lib/wii/libogc.a(system.o)
 .text.SYS_StopPMC
                0x00000000        0x0 /opt/devkitpro/libogc/lib/wii/libogc.a(system.o)
 .text.SYS_ResetPMC
                0x00000000        0x0 /opt/devkitpro/libogc/lib/wii/libogc.a(system.o)
 .text.SYS_DumpPMC
                0x00000000        0x0 /opt/devkitpro/libogc/lib/wii/libogc.a(system.o)
 .text.__SYS_GetSystemTime
                0x00000000        0x0 /opt/devkitpro/libogc/lib/wii/libogc.a(system.o)
 .text.SYS_GetFontEncoding
                0x00000000        0x0 /opt/devkitpro/libogc/lib/wii/libogc.a(system.o)
 .text.SYS_ProtectRange
                0x00000000        0x0 /opt/devkitpro/libogc/lib/wii/libogc.a(system.o)
 .text.__SYS_SetTime
                0x00000000        0x0 /opt/devkitpro/libogc/lib/wii/libogc.a(system.o)
 .text.__getrtc
                0x00000000        0x0 /opt/devkitpro/libogc/lib/wii/libogc.a(system.o)
 .text.__SYS_GetRTC
                0x00000000        0x0 /opt/devkitpro/libogc/lib/wii/libogc.a(system.o)
 .text.__SYS_ReadROM
                0x00000000        0x0 /opt/devkitpro/libogc/lib/wii/libogc.a(system.o)
 .text.__SYS_LoadFont
                0x00000000        0x0 /opt/devkitpro/libogc/lib/wii/libogc.a(system.o)
 .text.SYS_InitFont
                0x00000000        0x0 /opt/devkitpro/libogc/lib/wii/libogc.a(system.o)
 .text.__SYS_SetBootTime
                0x00000000        0x0 /opt/devkitpro/libogc/lib/wii/libogc.a(system.o)
 .sbss.sys_fontimage
                0x00000000        0x0 /opt/devkitpro/libogc/lib/wii/libogc.a(system.o)
 .sbss.sys_fontcharsinsheet
                0x00000000        0x0 /opt/devkitpro/libogc/lib/wii/libogc.a(system.o)
 .sdata.sys_fontenc
                0x00000000        0x0 /opt/devkitpro/libogc/lib/wii/libogc.a(system.o)
 .sbss.sys_fontdata
                0x00000000        0x0 /opt/devkitpro/libogc/lib/wii/libogc.a(system.o)
 .sbss.sys_fontarea
                0x00000000        0x0 /opt/devkitpro/libogc/lib/wii/libogc.a(system.o)
 .sbss.sys_fontwidthtab
                0x00000000        0x0 /opt/devkitpro/libogc/lib/wii/libogc.a(system.o)
 .data          0x00000000        0x0 /opt/devkitpro/libogc/lib/wii/libogc.a(system_asm.o)
 .bss           0x00000000        0x0 /opt/devkitpro/libogc/lib/wii/libogc.a(system_asm.o)
 .text          0x00000000        0x0 /opt/devkitpro/libogc/lib/wii/libogc.a(cond.o)
 .data          0x00000000        0x0 /opt/devkitpro/libogc/lib/wii/libogc.a(cond.o)
 .bss           0x00000000        0x0 /opt/devkitpro/libogc/lib/wii/libogc.a(cond.o)
 .text.LWP_CondDestroy
                0x00000000        0x0 /opt/devkitpro/libogc/lib/wii/libogc.a(cond.o)
 .text.LWP_CondInit
                0x00000000        0x0 /opt/devkitpro/libogc/lib/wii/libogc.a(cond.o)
 .text.__lwp_cond_signalsupp
                0x00000000        0x0 /opt/devkitpro/libogc/lib/wii/libogc.a(cond.o)
 .text.LWP_CondBroadcast
                0x00000000        0x0 /opt/devkitpro/libogc/lib/wii/libogc.a(cond.o)
 .text.LWP_CondSignal
                0x00000000        0x0 /opt/devkitpro/libogc/lib/wii/libogc.a(cond.o)
 .text.__lwp_cond_waitsupp
                0x00000000        0x0 /opt/devkitpro/libogc/lib/wii/libogc.a(cond.o)
 .text.LWP_CondTimedWait
                0x00000000        0x0 /opt/devkitpro/libogc/lib/wii/libogc.a(cond.o)
 .text.LWP_CondWait
                0x00000000        0x0 /opt/devkitpro/libogc/lib/wii/libogc.a(cond.o)
 .text          0x00000000        0x0 /opt/devkitpro/libogc/lib/wii/libogc.a(gx.o)
 .data          0x00000000        0x0 /opt/devkitpro/libogc/lib/wii/libogc.a(gx.o)
 .bss           0x00000000        0x0 /opt/devkitpro/libogc/lib/wii/libogc.a(gx.o)
 .text.GX_GetFifoPtrs
                0x00000000        0x0 /opt/devkitpro/libogc/lib/wii/libogc.a(gx.o)
 .text.GX_GetCPUFifo
                0x00000000        0x0 /opt/devkitpro/libogc/lib/wii/libogc.a(gx.o)
 .text.GX_GetGPFifo
                0x00000000        0x0 /opt/devkitpro/libogc/lib/wii/libogc.a(gx.o)
 .text.GX_GetOverflowCount
                0x00000000        0x0 /opt/devkitpro/libogc/lib/wii/libogc.a(gx.o)
 .text.GX_ResetOverflowCount
                0x00000000        0x0 /opt/devkitpro/libogc/lib/wii/libogc.a(gx.o)
 .text.GX_GetCurrentGXThread
                0x00000000        0x0 /opt/devkitpro/libogc/lib/wii/libogc.a(gx.o)
 .text.__GX_SaveCPUFifoAux
                0x00000000        0x0 /opt/devkitpro/libogc/lib/wii/libogc.a(gx.o)
 .text.GX_SaveCPUFifo
                0x00000000        0x0 /opt/devkitpro/libogc/lib/wii/libogc.a(gx.o)
 .text.GX_EnableBreakPt
                0x00000000        0x0 /opt/devkitpro/libogc/lib/wii/libogc.a(gx.o)
 .text.GX_DisableBreakPt
                0x00000000        0x0 /opt/devkitpro/libogc/lib/wii/libogc.a(gx.o)
 .text.GX_SetDrawSync
                0x00000000        0x0 /opt/devkitpro/libogc/lib/wii/libogc.a(gx.o)
 .text.GX_GetDrawSync
                0x00000000        0x0 /opt/devkitpro/libogc/lib/wii/libogc.a(gx.o)
 .text.GX_SetDrawDone
                0x00000000        0x0 /opt/devkitpro/libogc/lib/wii/libogc.a(gx.o)
 .text.GX_SetDrawDoneCallback
                0x00000000        0x0 /opt/devkitpro/libogc/lib/wii/libogc.a(gx.o)
 .text.GX_SetDrawSyncCallback
                0x00000000        0x0 /opt/devkitpro/libogc/lib/wii/libogc.a(gx.o)
 .text.GX_SetBreakPtCallback
                0x00000000        0x0 /opt/devkitpro/libogc/lib/wii/libogc.a(gx.o)
 .text.GX_PixModeSync
                0x00000000        0x0 /opt/devkitpro/libogc/lib/wii/libogc.a(gx.o)
 .text.GX_TexModeSync
                0x00000000        0x0 /opt/devkitpro/libogc/lib/wii/libogc.a(gx.o)
 .text.GX_SetMisc
                0x00000000        0x0 /opt/devkitpro/libogc/lib/wii/libogc.a(gx.o)
 .text.GX_CopyTex
                0x00000000        0x0 /opt/devkitpro/libogc/lib/wii/libogc.a(gx.o)
 .text.GX_SetTexCopySrc
                0x00000000        0x0 /opt/devkitpro/libogc/lib/wii/libogc.a(gx.o)
 .text.GX_SetTexCopyDst
                0x00000000        0x0 /opt/devkitpro/libogc/lib/wii/libogc.a(gx.o)
 .rodata.GX_SetTexCopyDst
                0x00000000        0x0 /opt/devkitpro/libogc/lib/wii/libogc.a(gx.o)
 .text.GX_CallDispList
                0x00000000        0x0 /opt/devkitpro/libogc/lib/wii/libogc.a(gx.o)
 .text.GX_SetArray
                0x00000000        0x0 /opt/devkitpro/libogc/lib/wii/libogc.a(gx.o)
 .text.GX_SetVtxAttrFmtv
                0x00000000        0x0 /opt/devkitpro/libogc/lib/wii/libogc.a(gx.o)
 .text.GX_Position3u16
                0x00000000        0x0 /opt/devkitpro/libogc/lib/wii/libogc.a(gx.o)
 .text.GX_Position3s16
                0x00000000        0x0 /opt/devkitpro/libogc/lib/wii/libogc.a(gx.o)
 .text.GX_Position3u8
                0x00000000        0x0 /opt/devkitpro/libogc/lib/wii/libogc.a(gx.o)
 .text.GX_Position3s8
                0x00000000        0x0 /opt/devkitpro/libogc/lib/wii/libogc.a(gx.o)
 .text.GX_Position2f32
                0x00000000        0x0 /opt/devkitpro/libogc/lib/wii/libogc.a(gx.o)
 .text.GX_Position2u16
                0x00000000        0x0 /opt/devkitpro/libogc/lib/wii/libogc.a(gx.o)
 .text.GX_Position2s16
                0x00000000        0x0 /opt/devkitpro/libogc/lib/wii/libogc.a(gx.o)
 .text.GX_Position2u8
                0x00000000        0x0 /opt/devkitpro/libogc/lib/wii/libogc.a(gx.o)
 .text.GX_Position2s8
                0x00000000        0x0 /opt/devkitpro/libogc/lib/wii/libogc.a(gx.o)
 .text.GX_Position1x8
                0x00000000        0x0 /opt/devkitpro/libogc/lib/wii/libogc.a(gx.o)
 .text.GX_Position1x16
                0x00000000        0x0 /opt/devkitpro/libogc/lib/wii/libogc.a(gx.o)
 .text.GX_Normal3f32
                0x00000000        0x0 /opt/devkitpro/libogc/lib/wii/libogc.a(gx.o)
 .text.GX_Normal3s16
                0x00000000        0x0 /opt/devkitpro/libogc/lib/wii/libogc.a(gx.o)
 .text.GX_Normal3s8
                0x00000000        0x0 /opt/devkitpro/libogc/lib/wii/libogc.a(gx.o)
 .text.GX_Normal1x8
                0x00000000        0x0 /opt/devkitpro/libogc/lib/wii/libogc.a(gx.o)
 .text.GX_Normal1x16
                0x00000000        0x0 /opt/devkitpro/libogc/lib/wii/libogc.a(gx.o)
 .text.GX_Color3u8
                0x00000000        0x0 /opt/devkitpro/libogc/lib/wii/libogc.a(gx.o)
 .text.GX_Color3f32
                0x00000000        0x0 /opt/devkitpro/libogc/lib/wii/libogc.a(gx.o)
 .text.GX_Color1u32
                0x00000000        0x0 /opt/devkitpro/libogc/lib/wii/libogc.a(gx.o)
 .text.GX_Color1u16
                0x00000000        0x0 /opt/devkitpro/libogc/lib/wii/libogc.a(gx.o)
 .text.GX_Color1x8
                0x00000000        0x0 /opt/devkitpro/libogc/lib/wii/libogc.a(gx.o)
 .text.GX_Color1x16
                0x00000000        0x0 /opt/devkitpro/libogc/lib/wii/libogc.a(gx.o)
 .text.GX_TexCoord2f32
                0x00000000        0x0 /opt/devkitpro/libogc/lib/wii/libogc.a(gx.o)
 .text.GX_TexCoord2u16
                0x00000000        0x0 /opt/devkitpro/libogc/lib/wii/libogc.a(gx.o)
 .text.GX_TexCoord2s16
                0x00000000        0x0 /opt/devkitpro/libogc/lib/wii/libogc.a(gx.o)
 .text.GX_TexCoord2u8
                0x00000000        0x0 /opt/devkitpro/libogc/lib/wii/libogc.a(gx.o)
 .text.GX_TexCoord2s8
                0x00000000        0x0 /opt/devkitpro/libogc/lib/wii/libogc.a(gx.o)
 .text.GX_TexCoord1f32
                0x00000000        0x0 /opt/devkitpro/libogc/lib/wii/libogc.a(gx.o)
 .text.GX_TexCoord1u16
                0x00000000        0x0 /opt/devkitpro/libogc/lib/wii/libogc.a(gx.o)
 .text.GX_TexCoord1s16
                0x00000000        0x0 /opt/devkitpro/libogc/lib/wii/libogc.a(gx.o)
 .text.GX_TexCoord1u8
                0x00000000        0x0 /opt/devkitpro/libogc/lib/wii/libogc.a(gx.o)
 .text.GX_TexCoord1s8
                0x00000000        0x0 /opt/devkitpro/libogc/lib/wii/libogc.a(gx.o)
 .text.GX_TexCoord1x8
                0x00000000        0x0 /opt/devkitpro/libogc/lib/wii/libogc.a(gx.o)
 .text.GX_TexCoord1x16
                0x00000000        0x0 /opt/devkitpro/libogc/lib/wii/libogc.a(gx.o)
 .text.GX_MatrixIndex1x8
                0x00000000        0x0 /opt/devkitpro/libogc/lib/wii/libogc.a(gx.o)
 .text.GX_LoadPosMtxIdx
                0x00000000        0x0 /opt/devkitpro/libogc/lib/wii/libogc.a(gx.o)
 .text.GX_LoadNrmMtxImm3x3
                0x00000000        0x0 /opt/devkitpro/libogc/lib/wii/libogc.a(gx.o)
 .text.GX_LoadNrmMtxIdx3x3
                0x00000000        0x0 /opt/devkitpro/libogc/lib/wii/libogc.a(gx.o)
 .text.GX_LoadTexMtxIdx
                0x00000000        0x0 /opt/devkitpro/libogc/lib/wii/libogc.a(gx.o)
 .text.GX_GetTexBufferSize
                0x00000000        0x0 /opt/devkitpro/libogc/lib/wii/libogc.a(gx.o)
 .rodata.GX_GetTexBufferSize
                0x00000000        0x0 /opt/devkitpro/libogc/lib/wii/libogc.a(gx.o)
 .text.GX_InitTexPreloadRegion
                0x00000000        0x0 /opt/devkitpro/libogc/lib/wii/libogc.a(gx.o)
 .text.GX_InitTexObjTlut
                0x00000000        0x0 /opt/devkitpro/libogc/lib/wii/libogc.a(gx.o)
 .text.GX_InitTexObjLOD
                0x00000000        0x0 /opt/devkitpro/libogc/lib/wii/libogc.a(gx.o)
 .text.GX_LoadTexObjPreloaded
                0x00000000        0x0 /opt/devkitpro/libogc/lib/wii/libogc.a(gx.o)
 .text.GX_LoadTexObj
                0x00000000        0x0 /opt/devkitpro/libogc/lib/wii/libogc.a(gx.o)
 .text.GX_PreloadEntireTex
                0x00000000        0x0 /opt/devkitpro/libogc/lib/wii/libogc.a(gx.o)
 .text.GX_InvalidateTexRegion
                0x00000000        0x0 /opt/devkitpro/libogc/lib/wii/libogc.a(gx.o)
 .text.GX_LoadTlut
                0x00000000        0x0 /opt/devkitpro/libogc/lib/wii/libogc.a(gx.o)
 .text.GX_SetTexCoorScaleManually
                0x00000000        0x0 /opt/devkitpro/libogc/lib/wii/libogc.a(gx.o)
 .text.GX_SetTexCoordCylWrap
                0x00000000        0x0 /opt/devkitpro/libogc/lib/wii/libogc.a(gx.o)
 .text.GX_SetTexCoordBias
                0x00000000        0x0 /opt/devkitpro/libogc/lib/wii/libogc.a(gx.o)
 .text.GX_SetTevColor
                0x00000000        0x0 /opt/devkitpro/libogc/lib/wii/libogc.a(gx.o)
 .text.GX_SetTevColorS10
                0x00000000        0x0 /opt/devkitpro/libogc/lib/wii/libogc.a(gx.o)
 .text.GX_SetTevKColor
                0x00000000        0x0 /opt/devkitpro/libogc/lib/wii/libogc.a(gx.o)
 .text.GX_SetTevKColorS10
                0x00000000        0x0 /opt/devkitpro/libogc/lib/wii/libogc.a(gx.o)
 .text.GX_SetIndTexMatrix
                0x00000000        0x0 /opt/devkitpro/libogc/lib/wii/libogc.a(gx.o)
 .text.GX_SetTevIndBumpST
                0x00000000        0x0 /opt/devkitpro/libogc/lib/wii/libogc.a(gx.o)
 .text.GX_SetTevIndBumpXYZ
                0x00000000        0x0 /opt/devkitpro/libogc/lib/wii/libogc.a(gx.o)
 .text.GX_PokeARGB
                0x00000000        0x0 /opt/devkitpro/libogc/lib/wii/libogc.a(gx.o)
 .text.GX_PokeZ
                0x00000000        0x0 /opt/devkitpro/libogc/lib/wii/libogc.a(gx.o)
 .text.GX_SetIndTexOrder
                0x00000000        0x0 /opt/devkitpro/libogc/lib/wii/libogc.a(gx.o)
 .text.GX_InitLightPos
                0x00000000        0x0 /opt/devkitpro/libogc/lib/wii/libogc.a(gx.o)
 .text.GX_InitLightColor
                0x00000000        0x0 /opt/devkitpro/libogc/lib/wii/libogc.a(gx.o)
 .text.GX_LoadLightObj
                0x00000000        0x0 /opt/devkitpro/libogc/lib/wii/libogc.a(gx.o)
 .text.GX_LoadLightObjIdx
                0x00000000        0x0 /opt/devkitpro/libogc/lib/wii/libogc.a(gx.o)
 .text.GX_InitLightDir
                0x00000000        0x0 /opt/devkitpro/libogc/lib/wii/libogc.a(gx.o)
 .text.GX_InitLightDistAttn
                0x00000000        0x0 /opt/devkitpro/libogc/lib/wii/libogc.a(gx.o)
 .text.GX_InitLightAttn
                0x00000000        0x0 /opt/devkitpro/libogc/lib/wii/libogc.a(gx.o)
 .text.GX_InitLightAttnA
                0x00000000        0x0 /opt/devkitpro/libogc/lib/wii/libogc.a(gx.o)
 .text.GX_InitLightAttnK
                0x00000000        0x0 /opt/devkitpro/libogc/lib/wii/libogc.a(gx.o)
 .text.GX_InitSpecularDirHA
                0x00000000        0x0 /opt/devkitpro/libogc/lib/wii/libogc.a(gx.o)
 .text.GX_InitXfRasMetric
                0x00000000        0x0 /opt/devkitpro/libogc/lib/wii/libogc.a(gx.o)
 .text.GX_ReadXfRasMetric
                0x00000000        0x0 /opt/devkitpro/libogc/lib/wii/libogc.a(gx.o)
 .text.GX_ClearVCacheMetric
                0x00000000        0x0 /opt/devkitpro/libogc/lib/wii/libogc.a(gx.o)
 .text.GX_ReadVCacheMetric
                0x00000000        0x0 /opt/devkitpro/libogc/lib/wii/libogc.a(gx.o)
 .text.GX_SetVCacheMetric
                0x00000000        0x0 /opt/devkitpro/libogc/lib/wii/libogc.a(gx.o)
 .text.GX_GetGPStatus
                0x00000000        0x0 /opt/devkitpro/libogc/lib/wii/libogc.a(gx.o)
 .text.GX_ReadGPMetric
                0x00000000        0x0 /opt/devkitpro/libogc/lib/wii/libogc.a(gx.o)
 .text.GX_AdjustForOverscan
                0x00000000        0x0 /opt/devkitpro/libogc/lib/wii/libogc.a(gx.o)
 .text.GX_InitLightSpot
                0x00000000        0x0 /opt/devkitpro/libogc/lib/wii/libogc.a(gx.o)
 .rodata.GX_InitLightSpot
                0x00000000        0x0 /opt/devkitpro/libogc/lib/wii/libogc.a(gx.o)
 .text.GX_InitSpecularDir
                0x00000000        0x0 /opt/devkitpro/libogc/lib/wii/libogc.a(gx.o)
 .text.GX_InitTlutObj
                0x00000000        0x0 /opt/devkitpro/libogc/lib/wii/libogc.a(gx.o)
 .text.GX_InitTexObj
                0x00000000        0x0 /opt/devkitpro/libogc/lib/wii/libogc.a(gx.o)
 .text.GX_InitTexObjCI
                0x00000000        0x0 /opt/devkitpro/libogc/lib/wii/libogc.a(gx.o)
 .text.GX_EndDispList
                0x00000000        0x0 /opt/devkitpro/libogc/lib/wii/libogc.a(gx.o)
 .text.GX_BeginDispList
                0x00000000        0x0 /opt/devkitpro/libogc/lib/wii/libogc.a(gx.o)
 .text.GX_ReadClksPerVtx
                0x00000000        0x0 /opt/devkitpro/libogc/lib/wii/libogc.a(gx.o)
 .text.GX_WaitDrawDone
                0x00000000        0x0 /opt/devkitpro/libogc/lib/wii/libogc.a(gx.o)
 .text.GX_SetCurrentGXThread
                0x00000000        0x0 /opt/devkitpro/libogc/lib/wii/libogc.a(gx.o)
 .text.GX_RedirectWriteGatherPipe
                0x00000000        0x0 /opt/devkitpro/libogc/lib/wii/libogc.a(gx.o)
 .text.GX_RestoreWriteGatherPipe
                0x00000000        0x0 /opt/devkitpro/libogc/lib/wii/libogc.a(gx.o)
 .text.GX_SetVtxDescv
                0x00000000        0x0 /opt/devkitpro/libogc/lib/wii/libogc.a(gx.o)
 .rodata.GX_SetVtxDescv
                0x00000000        0x0 /opt/devkitpro/libogc/lib/wii/libogc.a(gx.o)
 .sdata2._gxtexmode1ids
                0x00000000        0x0 /opt/devkitpro/libogc/lib/wii/libogc.a(gx.o)
 .sdata2._gxteximg0ids
                0x00000000        0x0 /opt/devkitpro/libogc/lib/wii/libogc.a(gx.o)
 .sbss._gxcurrbp
                0x00000000        0x0 /opt/devkitpro/libogc/lib/wii/libogc.a(gx.o)
 .sdata2._gxteximg1ids
                0x00000000        0x0 /opt/devkitpro/libogc/lib/wii/libogc.a(gx.o)
 .sdata2._gxtexmode0ids
                0x00000000        0x0 /opt/devkitpro/libogc/lib/wii/libogc.a(gx.o)
 .sbss._gxgpstatus
                0x00000000        0x0 /opt/devkitpro/libogc/lib/wii/libogc.a(gx.o)
 .sbss._gxoldcpufifo
                0x00000000        0x0 /opt/devkitpro/libogc/lib/wii/libogc.a(gx.o)
 .sdata2._gxteximg3ids
                0x00000000        0x0 /opt/devkitpro/libogc/lib/wii/libogc.a(gx.o)
 .sdata2._gxteximg2ids
                0x00000000        0x0 /opt/devkitpro/libogc/lib/wii/libogc.a(gx.o)
 .rodata.cst8   0x00000000        0x0 /opt/devkitpro/libogc/lib/wii/libogc.a(gx.o)
 .sdata2._gxtextlutids
                0x00000000        0x0 /opt/devkitpro/libogc/lib/wii/libogc.a(gx.o)
 .sdata2.GX2HWFiltConv.7543
                0x00000000        0x0 /opt/devkitpro/libogc/lib/wii/libogc.a(gx.o)
 COMMON         0x00000000        0x0 /opt/devkitpro/libogc/lib/wii/libogc.a(gx.o)
 .text          0x00000000        0x0 /opt/devkitpro/libogc/lib/wii/libogc.a(gu.o)
 .data          0x00000000        0x0 /opt/devkitpro/libogc/lib/wii/libogc.a(gu.o)
 .bss           0x00000000        0x0 /opt/devkitpro/libogc/lib/wii/libogc.a(gu.o)
 .text.guFrustum
                0x00000000        0x0 /opt/devkitpro/libogc/lib/wii/libogc.a(gu.o)
 .text.guLightOrtho
                0x00000000        0x0 /opt/devkitpro/libogc/lib/wii/libogc.a(gu.o)
 .text.guLightFrustum
                0x00000000        0x0 /opt/devkitpro/libogc/lib/wii/libogc.a(gu.o)
 .text.c_guMtxIdentity
                0x00000000        0x0 /opt/devkitpro/libogc/lib/wii/libogc.a(gu.o)
 .text.c_guMtxRotTrig
                0x00000000        0x0 /opt/devkitpro/libogc/lib/wii/libogc.a(gu.o)
 .rodata.c_guMtxRotTrig
                0x00000000        0x0 /opt/devkitpro/libogc/lib/wii/libogc.a(gu.o)
 .text.c_guMtxCopy
                0x00000000        0x0 /opt/devkitpro/libogc/lib/wii/libogc.a(gu.o)
 .text.c_guMtxConcat
                0x00000000        0x0 /opt/devkitpro/libogc/lib/wii/libogc.a(gu.o)
 .text.c_guMtxScale
                0x00000000        0x0 /opt/devkitpro/libogc/lib/wii/libogc.a(gu.o)
 .text.c_guMtxScaleApply
                0x00000000        0x0 /opt/devkitpro/libogc/lib/wii/libogc.a(gu.o)
 .text.c_guMtxTrans
                0x00000000        0x0 /opt/devkitpro/libogc/lib/wii/libogc.a(gu.o)
 .text.c_guMtxTransApply
                0x00000000        0x0 /opt/devkitpro/libogc/lib/wii/libogc.a(gu.o)
 .text.c_guMtxInverse
                0x00000000        0x0 /opt/devkitpro/libogc/lib/wii/libogc.a(gu.o)
 .text.c_guMtxTranspose
                0x00000000        0x0 /opt/devkitpro/libogc/lib/wii/libogc.a(gu.o)
 .text.c_guVecAdd
                0x00000000        0x0 /opt/devkitpro/libogc/lib/wii/libogc.a(gu.o)
 .text.c_guVecSub
                0x00000000        0x0 /opt/devkitpro/libogc/lib/wii/libogc.a(gu.o)
 .text.c_guVecScale
                0x00000000        0x0 /opt/devkitpro/libogc/lib/wii/libogc.a(gu.o)
 .text.c_guVecCross
                0x00000000        0x0 /opt/devkitpro/libogc/lib/wii/libogc.a(gu.o)
 .text.c_guVecMultiply
                0x00000000        0x0 /opt/devkitpro/libogc/lib/wii/libogc.a(gu.o)
 .text.c_guVecMultiplySR
                0x00000000        0x0 /opt/devkitpro/libogc/lib/wii/libogc.a(gu.o)
 .text.c_guVecDotProduct
                0x00000000        0x0 /opt/devkitpro/libogc/lib/wii/libogc.a(gu.o)
 .text.c_guMtxReflect
                0x00000000        0x0 /opt/devkitpro/libogc/lib/wii/libogc.a(gu.o)
 .text.c_guQuatAdd
                0x00000000        0x0 /opt/devkitpro/libogc/lib/wii/libogc.a(gu.o)
 .text.c_guQuatSub
                0x00000000        0x0 /opt/devkitpro/libogc/lib/wii/libogc.a(gu.o)
 .text.c_guQuatMultiply
                0x00000000        0x0 /opt/devkitpro/libogc/lib/wii/libogc.a(gu.o)
 .text.guVecHalfAngle
                0x00000000        0x0 /opt/devkitpro/libogc/lib/wii/libogc.a(gu.o)
 .text.c_guVecNormalize
                0x00000000        0x0 /opt/devkitpro/libogc/lib/wii/libogc.a(gu.o)
 .text.c_guMtxRotAxisRad
                0x00000000        0x0 /opt/devkitpro/libogc/lib/wii/libogc.a(gu.o)
 .text.c_guMtxRotRad
                0x00000000        0x0 /opt/devkitpro/libogc/lib/wii/libogc.a(gu.o)
 .text.ps_guMtxRotAxisRad
                0x00000000        0x0 /opt/devkitpro/libogc/lib/wii/libogc.a(gu.o)
 .text.ps_guMtxRotRad
                0x00000000        0x0 /opt/devkitpro/libogc/lib/wii/libogc.a(gu.o)
 .text.guLookAt
                0x00000000        0x0 /opt/devkitpro/libogc/lib/wii/libogc.a(gu.o)
 .text.guLightPerspective
                0x00000000        0x0 /opt/devkitpro/libogc/lib/wii/libogc.a(gu.o)
 .text.guPerspective
                0x00000000        0x0 /opt/devkitpro/libogc/lib/wii/libogc.a(gu.o)
 .bss           0x00000000        0x0 /opt/devkitpro/libogc/lib/wii/libogc.a(gu_psasm.o)
 .text          0x00000000        0x0 /opt/devkitpro/libogc/lib/wii/libogc.a(decrementer.o)
 .data          0x00000000        0x0 /opt/devkitpro/libogc/lib/wii/libogc.a(decrementer.o)
 .bss           0x00000000        0x0 /opt/devkitpro/libogc/lib/wii/libogc.a(decrementer.o)
 .text          0x00000000        0x0 /opt/devkitpro/libogc/lib/wii/libogc.a(message.o)
 .data          0x00000000        0x0 /opt/devkitpro/libogc/lib/wii/libogc.a(message.o)
 .bss           0x00000000        0x0 /opt/devkitpro/libogc/lib/wii/libogc.a(message.o)
 .text.MQ_Close
                0x00000000        0x0 /opt/devkitpro/libogc/lib/wii/libogc.a(message.o)
 .text.MQ_Init  0x00000000        0x0 /opt/devkitpro/libogc/lib/wii/libogc.a(message.o)
 .text.MQ_Jam   0x00000000        0x0 /opt/devkitpro/libogc/lib/wii/libogc.a(message.o)
 .text.MQ_Receive
                0x00000000        0x0 /opt/devkitpro/libogc/lib/wii/libogc.a(message.o)
 .text.MQ_Send  0x00000000        0x0 /opt/devkitpro/libogc/lib/wii/libogc.a(message.o)
 .text          0x00000000        0x0 /opt/devkitpro/libogc/lib/wii/libogc.a(si.o)
 .data          0x00000000        0x0 /opt/devkitpro/libogc/lib/wii/libogc.a(si.o)
 .bss           0x00000000        0x0 /opt/devkitpro/libogc/lib/wii/libogc.a(si.o)
 .text.SI_Busy  0x00000000        0x0 /opt/devkitpro/libogc/lib/wii/libogc.a(si.o)
 .text.SI_GetCommand
                0x00000000        0x0 /opt/devkitpro/libogc/lib/wii/libogc.a(si.o)
 .text.SI_EnablePollingInterrupt
                0x00000000        0x0 /opt/devkitpro/libogc/lib/wii/libogc.a(si.o)
 .text.SI_UnregisterPollingHandler
                0x00000000        0x0 /opt/devkitpro/libogc/lib/wii/libogc.a(si.o)
 .text.SI_RegisterPollingHandler
                0x00000000        0x0 /opt/devkitpro/libogc/lib/wii/libogc.a(si.o)
 .text.SI_Sync  0x00000000        0x0 /opt/devkitpro/libogc/lib/wii/libogc.a(si.o)
 .text          0x00000000        0x0 /opt/devkitpro/libogc/lib/wii/libogc.a(ipc.o)
 .data          0x00000000        0x0 /opt/devkitpro/libogc/lib/wii/libogc.a(ipc.o)
 .bss           0x00000000        0x0 /opt/devkitpro/libogc/lib/wii/libogc.a(ipc.o)
 .text.iosDestroyHeap
                0x00000000        0x0 /opt/devkitpro/libogc/lib/wii/libogc.a(ipc.o)
 .text.IPC_SetBufferHi
                0x00000000        0x0 /opt/devkitpro/libogc/lib/wii/libogc.a(ipc.o)
 .text.IOS_OpenAsync
                0x00000000        0x0 /opt/devkitpro/libogc/lib/wii/libogc.a(ipc.o)
 .text.IOS_IoctlvFormatAsync
                0x00000000        0x0 /opt/devkitpro/libogc/lib/wii/libogc.a(ipc.o)
 .text.IOS_SeekAsync
                0x00000000        0x0 /opt/devkitpro/libogc/lib/wii/libogc.a(ipc.o)
 .text.IOS_Seek
                0x00000000        0x0 /opt/devkitpro/libogc/lib/wii/libogc.a(ipc.o)
 .text.IOS_WriteAsync
                0x00000000        0x0 /opt/devkitpro/libogc/lib/wii/libogc.a(ipc.o)
 .text.IOS_Write
                0x00000000        0x0 /opt/devkitpro/libogc/lib/wii/libogc.a(ipc.o)
 .text.IOS_ReadAsync
                0x00000000        0x0 /opt/devkitpro/libogc/lib/wii/libogc.a(ipc.o)
 .text          0x00000000        0x0 /opt/devkitpro/libogc/lib/wii/libogc.a(ogc_crt0.o)
 .text          0x00000000        0x0 /opt/devkitpro/libogc/lib/wii/libogc.a(timesupp.o)
 .data          0x00000000        0x0 /opt/devkitpro/libogc/lib/wii/libogc.a(timesupp.o)
 .bss           0x00000000        0x0 /opt/devkitpro/libogc/lib/wii/libogc.a(timesupp.o)
 .text.settime  0x00000000        0x0 /opt/devkitpro/libogc/lib/wii/libogc.a(timesupp.o)
 .text.diff_sec
                0x00000000        0x0 /opt/devkitpro/libogc/lib/wii/libogc.a(timesupp.o)
 .text.diff_msec
                0x00000000        0x0 /opt/devkitpro/libogc/lib/wii/libogc.a(timesupp.o)
 .text.diff_nsec
                0x00000000        0x0 /opt/devkitpro/libogc/lib/wii/libogc.a(timesupp.o)
 .text.timespec_substract
                0x00000000        0x0 /opt/devkitpro/libogc/lib/wii/libogc.a(timesupp.o)
 .text.timespec_to_ticks
                0x00000000        0x0 /opt/devkitpro/libogc/lib/wii/libogc.a(timesupp.o)
 .text.__time_exi_unlock
                0x00000000        0x0 /opt/devkitpro/libogc/lib/wii/libogc.a(timesupp.o)
 .text.__getrtc
                0x00000000        0x0 /opt/devkitpro/libogc/lib/wii/libogc.a(timesupp.o)
 .text.time     0x00000000        0x0 /opt/devkitpro/libogc/lib/wii/libogc.a(timesupp.o)
 .text.nanosleep
                0x00000000        0x0 /opt/devkitpro/libogc/lib/wii/libogc.a(timesupp.o)
 .text.usleep   0x00000000        0x0 /opt/devkitpro/libogc/lib/wii/libogc.a(timesupp.o)
 .text.sleep    0x00000000        0x0 /opt/devkitpro/libogc/lib/wii/libogc.a(timesupp.o)
 .text.clock_gettime
                0x00000000        0x0 /opt/devkitpro/libogc/lib/wii/libogc.a(timesupp.o)
 .text          0x00000000        0x0 /opt/devkitpro/libogc/lib/wii/libogc.a(lock_supp.o)
 .data          0x00000000        0x0 /opt/devkitpro/libogc/lib/wii/libogc.a(lock_supp.o)
 .bss           0x00000000        0x0 /opt/devkitpro/libogc/lib/wii/libogc.a(lock_supp.o)
 .text          0x00000000        0x0 /opt/devkitpro/libogc/lib/wii/libogc.a(newlibc.o)
 .data          0x00000000        0x0 /opt/devkitpro/libogc/lib/wii/libogc.a(newlibc.o)
 .bss           0x00000000        0x0 /opt/devkitpro/libogc/lib/wii/libogc.a(newlibc.o)
 .text.__libc_wrapup
                0x00000000        0x0 /opt/devkitpro/libogc/lib/wii/libogc.a(newlibc.o)
 .text          0x00000000        0x0 /opt/devkitpro/libogc/lib/wii/libogc.a(sbrk.o)
 .data          0x00000000        0x0 /opt/devkitpro/libogc/lib/wii/libogc.a(sbrk.o)
 .bss           0x00000000        0x0 /opt/devkitpro/libogc/lib/wii/libogc.a(sbrk.o)
 .text          0x00000000        0x0 /opt/devkitpro/libogc/lib/wii/libogc.a(malloc_lock.o)
 .data          0x00000000        0x0 /opt/devkitpro/libogc/lib/wii/libogc.a(malloc_lock.o)
 .bss           0x00000000        0x0 /opt/devkitpro/libogc/lib/wii/libogc.a(malloc_lock.o)
 .text          0x00000000        0x0 /opt/devkitpro/libogc/lib/wii/libogc.a(stm.o)
 .data          0x00000000        0x0 /opt/devkitpro/libogc/lib/wii/libogc.a(stm.o)
 .bss           0x00000000        0x0 /opt/devkitpro/libogc/lib/wii/libogc.a(stm.o)
 .text          0x00000000        0x0 /opt/devkitpro/libogc/lib/wii/libogc.a(ios.o)
 .data          0x00000000        0x0 /opt/devkitpro/libogc/lib/wii/libogc.a(ios.o)
 .bss           0x00000000        0x0 /opt/devkitpro/libogc/lib/wii/libogc.a(ios.o)
 .text.IOS_GetRevision
                0x00000000        0x0 /opt/devkitpro/libogc/lib/wii/libogc.a(ios.o)
 .text.IOS_GetRevisionMinor
                0x00000000        0x0 /opt/devkitpro/libogc/lib/wii/libogc.a(ios.o)
 .text.IOS_GetRevisionMajor
                0x00000000        0x0 /opt/devkitpro/libogc/lib/wii/libogc.a(ios.o)
 .text.IOS_ReloadIOS
                0x00000000        0x0 /opt/devkitpro/libogc/lib/wii/libogc.a(ios.o)
 .text          0x00000000        0x0 /opt/devkitpro/libogc/lib/wii/libogc.a(es.o)
 .data          0x00000000        0x0 /opt/devkitpro/libogc/lib/wii/libogc.a(es.o)
 .bss           0x00000000        0x0 /opt/devkitpro/libogc/lib/wii/libogc.a(es.o)
 .text.ES_NextCert
                0x00000000        0x0 /opt/devkitpro/libogc/lib/wii/libogc.a(es.o)
 .text.__ES_sanity_check_certlist
                0x00000000        0x0 /opt/devkitpro/libogc/lib/wii/libogc.a(es.o)
 .text.ES_GetBoot2Version
                0x00000000        0x0 /opt/devkitpro/libogc/lib/wii/libogc.a(es.o)
 .text.ES_GetDeviceID
                0x00000000        0x0 /opt/devkitpro/libogc/lib/wii/libogc.a(es.o)
 .text.ES_GetDeviceCert
                0x00000000        0x0 /opt/devkitpro/libogc/lib/wii/libogc.a(es.o)
 .text.ES_Sign  0x00000000        0x0 /opt/devkitpro/libogc/lib/wii/libogc.a(es.o)
 .text.ES_Decrypt
                0x00000000        0x0 /opt/devkitpro/libogc/lib/wii/libogc.a(es.o)
 .text.ES_Encrypt
                0x00000000        0x0 /opt/devkitpro/libogc/lib/wii/libogc.a(es.o)
 .text.ES_DeleteTitleContent
                0x00000000        0x0 /opt/devkitpro/libogc/lib/wii/libogc.a(es.o)
 .text.ES_DeleteTitle
                0x00000000        0x0 /opt/devkitpro/libogc/lib/wii/libogc.a(es.o)
 .text.ES_CloseContent
                0x00000000        0x0 /opt/devkitpro/libogc/lib/wii/libogc.a(es.o)
 .text.ES_SeekContent
                0x00000000        0x0 /opt/devkitpro/libogc/lib/wii/libogc.a(es.o)
 .text.ES_ReadContent
                0x00000000        0x0 /opt/devkitpro/libogc/lib/wii/libogc.a(es.o)
 .text.ES_OpenContent
                0x00000000        0x0 /opt/devkitpro/libogc/lib/wii/libogc.a(es.o)
 .text.ES_AddTitleCancel
                0x00000000        0x0 /opt/devkitpro/libogc/lib/wii/libogc.a(es.o)
 .text.ES_AddTitleFinish
                0x00000000        0x0 /opt/devkitpro/libogc/lib/wii/libogc.a(es.o)
 .text.ES_AddContentFinish
                0x00000000        0x0 /opt/devkitpro/libogc/lib/wii/libogc.a(es.o)
 .text.ES_AddContentData
                0x00000000        0x0 /opt/devkitpro/libogc/lib/wii/libogc.a(es.o)
 .text.ES_AddContentStart
                0x00000000        0x0 /opt/devkitpro/libogc/lib/wii/libogc.a(es.o)
 .text.ES_AddTitleStart
                0x00000000        0x0 /opt/devkitpro/libogc/lib/wii/libogc.a(es.o)
 .text.ES_AddTitleTMD
                0x00000000        0x0 /opt/devkitpro/libogc/lib/wii/libogc.a(es.o)
 .text.ES_DeleteTicket
                0x00000000        0x0 /opt/devkitpro/libogc/lib/wii/libogc.a(es.o)
 .text.ES_AddTicket
                0x00000000        0x0 /opt/devkitpro/libogc/lib/wii/libogc.a(es.o)
 .text.ES_GetSharedContents
                0x00000000        0x0 /opt/devkitpro/libogc/lib/wii/libogc.a(es.o)
 .text.ES_GetNumSharedContents
                0x00000000        0x0 /opt/devkitpro/libogc/lib/wii/libogc.a(es.o)
 .text.ES_GetStoredTMD
                0x00000000        0x0 /opt/devkitpro/libogc/lib/wii/libogc.a(es.o)
 .text.ES_GetStoredTMDSize
                0x00000000        0x0 /opt/devkitpro/libogc/lib/wii/libogc.a(es.o)
 .text.ES_GetTMDView
                0x00000000        0x0 /opt/devkitpro/libogc/lib/wii/libogc.a(es.o)
 .text.ES_GetTMDViewSize
                0x00000000        0x0 /opt/devkitpro/libogc/lib/wii/libogc.a(es.o)
 .text.ES_GetTitleContents
                0x00000000        0x0 /opt/devkitpro/libogc/lib/wii/libogc.a(es.o)
 .text.ES_GetTitleContentsCount
                0x00000000        0x0 /opt/devkitpro/libogc/lib/wii/libogc.a(es.o)
 .text.ES_GetStoredTMDContents
                0x00000000        0x0 /opt/devkitpro/libogc/lib/wii/libogc.a(es.o)
 .text.ES_GetNumStoredTMDContents
                0x00000000        0x0 /opt/devkitpro/libogc/lib/wii/libogc.a(es.o)
 .text.ES_GetOwnedTitles
                0x00000000        0x0 /opt/devkitpro/libogc/lib/wii/libogc.a(es.o)
 .text.ES_GetNumOwnedTitles
                0x00000000        0x0 /opt/devkitpro/libogc/lib/wii/libogc.a(es.o)
 .text.ES_GetDataDir
                0x00000000        0x0 /opt/devkitpro/libogc/lib/wii/libogc.a(es.o)
 .text.ES_SetUID
                0x00000000        0x0 /opt/devkitpro/libogc/lib/wii/libogc.a(es.o)
 .text.ES_GetTitleID
                0x00000000        0x0 /opt/devkitpro/libogc/lib/wii/libogc.a(es.o)
 .text.ES_Identify
                0x00000000        0x0 /opt/devkitpro/libogc/lib/wii/libogc.a(es.o)
 .text          0x00000000        0x0 /opt/devkitpro/libogc/lib/wii/libogc.a(usb.o)
 .data          0x00000000        0x0 /opt/devkitpro/libogc/lib/wii/libogc.a(usb.o)
 .bss           0x00000000        0x0 /opt/devkitpro/libogc/lib/wii/libogc.a(usb.o)
 .text.USB_ReadIntrMsg
                0x00000000        0x0 /opt/devkitpro/libogc/lib/wii/libogc.a(usb.o)
 .text.USB_GetDeviceList
                0x00000000        0x0 /opt/devkitpro/libogc/lib/wii/libogc.a(usb.o)
 .text.USB_DeviceInsertNotifyAsync
                0x00000000        0x0 /opt/devkitpro/libogc/lib/wii/libogc.a(usb.o)
 .text.USB_CloseDevice
                0x00000000        0x0 /opt/devkitpro/libogc/lib/wii/libogc.a(usb.o)
 .text.__usb_device_notificationCB
                0x00000000        0x0 /opt/devkitpro/libogc/lib/wii/libogc.a(usb.o)
 .text.USB_ResumeDevice
                0x00000000        0x0 /opt/devkitpro/libogc/lib/wii/libogc.a(usb.o)
 .text.USB_SuspendDevice
                0x00000000        0x0 /opt/devkitpro/libogc/lib/wii/libogc.a(usb.o)
 .text.USB_DeviceRemovalNotifyAsync
                0x00000000        0x0 /opt/devkitpro/libogc/lib/wii/libogc.a(usb.o)
 .text.USB_FreeDescriptors
                0x00000000        0x0 /opt/devkitpro/libogc/lib/wii/libogc.a(usb.o)
 .text.USB_Deinitialize
                0x00000000        0x0 /opt/devkitpro/libogc/lib/wii/libogc.a(usb.o)
 .text.USB_WriteBlkMsg
                0x00000000        0x0 /opt/devkitpro/libogc/lib/wii/libogc.a(usb.o)
 .text.USB_ReadBlkMsg
                0x00000000        0x0 /opt/devkitpro/libogc/lib/wii/libogc.a(usb.o)
 .text.USB_WriteIntrMsgAsync
                0x00000000        0x0 /opt/devkitpro/libogc/lib/wii/libogc.a(usb.o)
 .text.USB_WriteIntrMsg
                0x00000000        0x0 /opt/devkitpro/libogc/lib/wii/libogc.a(usb.o)
 .text.USB_ClearHalt
                0x00000000        0x0 /opt/devkitpro/libogc/lib/wii/libogc.a(usb.o)
 .text.USB_SetAlternativeInterface
                0x00000000        0x0 /opt/devkitpro/libogc/lib/wii/libogc.a(usb.o)
 .text.USB_GetConfiguration
                0x00000000        0x0 /opt/devkitpro/libogc/lib/wii/libogc.a(usb.o)
 .text.USB_SetConfiguration
                0x00000000        0x0 /opt/devkitpro/libogc/lib/wii/libogc.a(usb.o)
 .text.USB_WriteCtrlMsg
                0x00000000        0x0 /opt/devkitpro/libogc/lib/wii/libogc.a(usb.o)
 .text.USB_ReadCtrlMsgAsync
                0x00000000        0x0 /opt/devkitpro/libogc/lib/wii/libogc.a(usb.o)
 .text.USB_ReadCtrlMsg
                0x00000000        0x0 /opt/devkitpro/libogc/lib/wii/libogc.a(usb.o)
 .text.USB_GetAsciiString
                0x00000000        0x0 /opt/devkitpro/libogc/lib/wii/libogc.a(usb.o)
 .text.USB_GetDeviceDescription
                0x00000000        0x0 /opt/devkitpro/libogc/lib/wii/libogc.a(usb.o)
 .text.USB_GetDescriptors
                0x00000000        0x0 /opt/devkitpro/libogc/lib/wii/libogc.a(usb.o)
 .text          0x00000000        0x0 /opt/devkitpro/libogc/lib/wii/libogc.a(argv.o)
 .data          0x00000000        0x0 /opt/devkitpro/libogc/lib/wii/libogc.a(argv.o)
 .bss           0x00000000        0x0 /opt/devkitpro/libogc/lib/wii/libogc.a(argv.o)
 .text          0x00000000        0x0 /opt/devkitpro/libogc/lib/wii/libogc.a(conf.o)
 .data          0x00000000        0x0 /opt/devkitpro/libogc/lib/wii/libogc.a(conf.o)
 .bss           0x00000000        0x0 /opt/devkitpro/libogc/lib/wii/libogc.a(conf.o)
 .text.CONF_GetType
                0x00000000        0x0 /opt/devkitpro/libogc/lib/wii/libogc.a(conf.o)
 .text.CONF_GetWiiConnect24
                0x00000000        0x0 /opt/devkitpro/libogc/lib/wii/libogc.a(conf.o)
 .text.CONF_GetParentalAnswer
                0x00000000        0x0 /opt/devkitpro/libogc/lib/wii/libogc.a(conf.o)
 .text.CONF_GetParentalPassword
                0x00000000        0x0 /opt/devkitpro/libogc/lib/wii/libogc.a(conf.o)
 .text.CONF_GetEULA
                0x00000000        0x0 /opt/devkitpro/libogc/lib/wii/libogc.a(conf.o)
 .text.CONF_GetAspectRatio
                0x00000000        0x0 /opt/devkitpro/libogc/lib/wii/libogc.a(conf.o)
 .text.CONF_GetNickName
                0x00000000        0x0 /opt/devkitpro/libogc/lib/wii/libogc.a(conf.o)
 .text.CONF_GetDisplayOffsetH
                0x00000000        0x0 /opt/devkitpro/libogc/lib/wii/libogc.a(conf.o)
 .text.CONF_GetScreenSaverMode
                0x00000000        0x0 /opt/devkitpro/libogc/lib/wii/libogc.a(conf.o)
 .text.CONF_GetCounterBias
                0x00000000        0x0 /opt/devkitpro/libogc/lib/wii/libogc.a(conf.o)
 .text.CONF_GetLanguage
                0x00000000        0x0 /opt/devkitpro/libogc/lib/wii/libogc.a(conf.o)
 .text.CONF_GetSoundMode
                0x00000000        0x0 /opt/devkitpro/libogc/lib/wii/libogc.a(conf.o)
 .text.CONF_GetPadMotorMode
                0x00000000        0x0 /opt/devkitpro/libogc/lib/wii/libogc.a(conf.o)
 .text.CONF_GetPadSpeakerVolume
                0x00000000        0x0 /opt/devkitpro/libogc/lib/wii/libogc.a(conf.o)
 .text.CONF_GetArea
                0x00000000        0x0 /opt/devkitpro/libogc/lib/wii/libogc.a(conf.o)
 .text.CONF_GetRegion
                0x00000000        0x0 /opt/devkitpro/libogc/lib/wii/libogc.a(conf.o)
 .text          0x00000000        0x0 /opt/devkitpro/libogc/lib/wii/libogc.a(lwp_priority.o)
 .data          0x00000000        0x0 /opt/devkitpro/libogc/lib/wii/libogc.a(lwp_priority.o)
 .bss           0x00000000        0x0 /opt/devkitpro/libogc/lib/wii/libogc.a(lwp_priority.o)
 .text          0x00000000        0x0 /opt/devkitpro/libogc/lib/wii/libogc.a(lwp_threadq.o)
 .data          0x00000000        0x0 /opt/devkitpro/libogc/lib/wii/libogc.a(lwp_threadq.o)
 .bss           0x00000000        0x0 /opt/devkitpro/libogc/lib/wii/libogc.a(lwp_threadq.o)
 .text.__lwp_threadqueue_firstfifo
                0x00000000        0x0 /opt/devkitpro/libogc/lib/wii/libogc.a(lwp_threadq.o)
 .text.__lwp_threadqueue_firstpriority
                0x00000000        0x0 /opt/devkitpro/libogc/lib/wii/libogc.a(lwp_threadq.o)
 .text.__lwp_threadqueue_first
                0x00000000        0x0 /opt/devkitpro/libogc/lib/wii/libogc.a(lwp_threadq.o)
 .text          0x00000000        0x0 /opt/devkitpro/libogc/lib/wii/libogc.a(lwp_messages.o)
 .data          0x00000000        0x0 /opt/devkitpro/libogc/lib/wii/libogc.a(lwp_messages.o)
 .bss           0x00000000        0x0 /opt/devkitpro/libogc/lib/wii/libogc.a(lwp_messages.o)
 .text.__lwpmq_flush_support
                0x00000000        0x0 /opt/devkitpro/libogc/lib/wii/libogc.a(lwp_messages.o)
 .text.__lwpmq_flush
                0x00000000        0x0 /opt/devkitpro/libogc/lib/wii/libogc.a(lwp_messages.o)
 .text.__lwpmq_flush_waitthreads
                0x00000000        0x0 /opt/devkitpro/libogc/lib/wii/libogc.a(lwp_messages.o)
 .text.__lwpmq_close
                0x00000000        0x0 /opt/devkitpro/libogc/lib/wii/libogc.a(lwp_messages.o)
 .text.__lwpmq_initialize
                0x00000000        0x0 /opt/devkitpro/libogc/lib/wii/libogc.a(lwp_messages.o)
 .text.__lwpmq_msg_insert
                0x00000000        0x0 /opt/devkitpro/libogc/lib/wii/libogc.a(lwp_messages.o)
 .text.__lwpmq_broadcast
                0x00000000        0x0 /opt/devkitpro/libogc/lib/wii/libogc.a(lwp_messages.o)
 .text.__lwpmq_submit
                0x00000000        0x0 /opt/devkitpro/libogc/lib/wii/libogc.a(lwp_messages.o)
 .text.__lwpmq_seize
                0x00000000        0x0 /opt/devkitpro/libogc/lib/wii/libogc.a(lwp_messages.o)
 .text          0x00000000        0x0 /opt/devkitpro/libogc/lib/wii/libogc.a(lwp_mutex.o)
 .data          0x00000000        0x0 /opt/devkitpro/libogc/lib/wii/libogc.a(lwp_mutex.o)
 .bss           0x00000000        0x0 /opt/devkitpro/libogc/lib/wii/libogc.a(lwp_mutex.o)
 .text          0x00000000        0x0 /opt/devkitpro/libogc/lib/wii/libogc.a(exception.o)
 .data          0x00000000        0x0 /opt/devkitpro/libogc/lib/wii/libogc.a(exception.o)
 .bss           0x00000000        0x0 /opt/devkitpro/libogc/lib/wii/libogc.a(exception.o)
 .text.__exception_close
                0x00000000        0x0 /opt/devkitpro/libogc/lib/wii/libogc.a(exception.o)
 .text.__exception_closeall
                0x00000000        0x0 /opt/devkitpro/libogc/lib/wii/libogc.a(exception.o)
 .data          0x00000000        0x0 /opt/devkitpro/libogc/lib/wii/libogc.a(irq_handler.o)
 .bss           0x00000000        0x0 /opt/devkitpro/libogc/lib/wii/libogc.a(irq_handler.o)
 .text          0x00000000        0x0 /opt/devkitpro/libogc/lib/wii/libogc.a(semaphore.o)
 .data          0x00000000        0x0 /opt/devkitpro/libogc/lib/wii/libogc.a(semaphore.o)
 .bss           0x00000000        0x0 /opt/devkitpro/libogc/lib/wii/libogc.a(semaphore.o)
 .text.LWP_SemInit
                0x00000000        0x0 /opt/devkitpro/libogc/lib/wii/libogc.a(semaphore.o)
 .text.LWP_SemDestroy
                0x00000000        0x0 /opt/devkitpro/libogc/lib/wii/libogc.a(semaphore.o)
 .text.LWP_SemPost
                0x00000000        0x0 /opt/devkitpro/libogc/lib/wii/libogc.a(semaphore.o)
 .text.LWP_SemWait
                0x00000000        0x0 /opt/devkitpro/libogc/lib/wii/libogc.a(semaphore.o)
 .text          0x00000000        0x0 /opt/devkitpro/libogc/lib/wii/libogc.a(video_asm.o)
 .data          0x00000000        0x0 /opt/devkitpro/libogc/lib/wii/libogc.a(video_asm.o)
 .bss           0x00000000        0x0 /opt/devkitpro/libogc/lib/wii/libogc.a(video_asm.o)
 .text          0x00000000        0x0 /opt/devkitpro/libogc/lib/wii/libogc.a(pad.o)
 .data          0x00000000        0x0 /opt/devkitpro/libogc/lib/wii/libogc.a(pad.o)
 .bss           0x00000000        0x0 /opt/devkitpro/libogc/lib/wii/libogc.a(pad.o)
 .text.SPEC0_MakeStatus
                0x00000000        0x0 /opt/devkitpro/libogc/lib/wii/libogc.a(pad.o)
 .text.SPEC1_MakeStatus
                0x00000000        0x0 /opt/devkitpro/libogc/lib/wii/libogc.a(pad.o)
 .text.__pad_clampS8
                0x00000000        0x0 /opt/devkitpro/libogc/lib/wii/libogc.a(pad.o)
 .text.__pad_clampU8
                0x00000000        0x0 /opt/devkitpro/libogc/lib/wii/libogc.a(pad.o)
 .text.SPEC2_MakeStatus
                0x00000000        0x0 /opt/devkitpro/libogc/lib/wii/libogc.a(pad.o)
 .text.__pad_clampstick
                0x00000000        0x0 /opt/devkitpro/libogc/lib/wii/libogc.a(pad.o)
 .text.__pad_clamptrigger
                0x00000000        0x0 /opt/devkitpro/libogc/lib/wii/libogc.a(pad.o)
 .text.__pad_samplinghandler
                0x00000000        0x0 /opt/devkitpro/libogc/lib/wii/libogc.a(pad.o)
 .text.PAD_Recalibrate
                0x00000000        0x0 /opt/devkitpro/libogc/lib/wii/libogc.a(pad.o)
 .text.PAD_SetSpec
                0x00000000        0x0 /opt/devkitpro/libogc/lib/wii/libogc.a(pad.o)
 .text.PAD_Clamp
                0x00000000        0x0 /opt/devkitpro/libogc/lib/wii/libogc.a(pad.o)
 .text.PAD_ButtonsUp
                0x00000000        0x0 /opt/devkitpro/libogc/lib/wii/libogc.a(pad.o)
 .text.PAD_ButtonsHeld
                0x00000000        0x0 /opt/devkitpro/libogc/lib/wii/libogc.a(pad.o)
 .text.PAD_SubStickX
                0x00000000        0x0 /opt/devkitpro/libogc/lib/wii/libogc.a(pad.o)
 .text.PAD_SubStickY
                0x00000000        0x0 /opt/devkitpro/libogc/lib/wii/libogc.a(pad.o)
 .text.PAD_StickX
                0x00000000        0x0 /opt/devkitpro/libogc/lib/wii/libogc.a(pad.o)
 .text.PAD_StickY
                0x00000000        0x0 /opt/devkitpro/libogc/lib/wii/libogc.a(pad.o)
 .text.PAD_TriggerL
                0x00000000        0x0 /opt/devkitpro/libogc/lib/wii/libogc.a(pad.o)
 .text.PAD_TriggerR
                0x00000000        0x0 /opt/devkitpro/libogc/lib/wii/libogc.a(pad.o)
 .text.PAD_SetSamplingCallback
                0x00000000        0x0 /opt/devkitpro/libogc/lib/wii/libogc.a(pad.o)
 .text.PAD_ControlMotor
                0x00000000        0x0 /opt/devkitpro/libogc/lib/wii/libogc.a(pad.o)
 .text.PAD_Sync
                0x00000000        0x0 /opt/devkitpro/libogc/lib/wii/libogc.a(pad.o)
 .text.__pad_onreset
                0x00000000        0x0 /opt/devkitpro/libogc/lib/wii/libogc.a(pad.o)
 .text.PAD_Init
                0x00000000        0x0 /opt/devkitpro/libogc/lib/wii/libogc.a(pad.o)
 .data.pad_resetinfo
                0x00000000        0x0 /opt/devkitpro/libogc/lib/wii/libogc.a(pad.o)
 .sbss.__pad_samplingcallback
                0x00000000        0x0 /opt/devkitpro/libogc/lib/wii/libogc.a(pad.o)
 .sbss.__pad_initialized
                0x00000000        0x0 /opt/devkitpro/libogc/lib/wii/libogc.a(pad.o)
 .sbss.__pad_recalibrated$207
                0x00000000        0x0 /opt/devkitpro/libogc/lib/wii/libogc.a(pad.o)
 .text          0x00000000        0x0 /opt/devkitpro/libogc/lib/wii/libogc.a(exi.o)
 .data          0x00000000        0x0 /opt/devkitpro/libogc/lib/wii/libogc.a(exi.o)
 .bss           0x00000000        0x0 /opt/devkitpro/libogc/lib/wii/libogc.a(exi.o)
 .text.EXI_GetState
                0x00000000        0x0 /opt/devkitpro/libogc/lib/wii/libogc.a(exi.o)
 .text.InitializeUART
                0x00000000        0x0 /opt/devkitpro/libogc/lib/wii/libogc.a(exi.o)
 .text.WriteUARTN
                0x00000000        0x0 /opt/devkitpro/libogc/lib/wii/libogc.a(exi.o)
 .text.EXI_Probe
                0x00000000        0x0 /opt/devkitpro/libogc/lib/wii/libogc.a(exi.o)
 .text.EXI_ProbeEx
                0x00000000        0x0 /opt/devkitpro/libogc/lib/wii/libogc.a(exi.o)
 .text.EXI_Attach
                0x00000000        0x0 /opt/devkitpro/libogc/lib/wii/libogc.a(exi.o)
 .text.__SYS_EnableBarnacle
                0x00000000        0x0 /opt/devkitpro/libogc/lib/wii/libogc.a(exi.o)
 .text.EXI_SelectSD
                0x00000000        0x0 /opt/devkitpro/libogc/lib/wii/libogc.a(exi.o)
 .text.EXI_RegisterEXICallback
                0x00000000        0x0 /opt/devkitpro/libogc/lib/wii/libogc.a(exi.o)
 .sbss.exi_uart_dev
                0x00000000        0x0 /opt/devkitpro/libogc/lib/wii/libogc.a(exi.o)
 .sbss.exi_uart_barnacle_enabled
                0x00000000        0x0 /opt/devkitpro/libogc/lib/wii/libogc.a(exi.o)
 .sbss.exi_uart_chan
                0x00000000        0x0 /opt/devkitpro/libogc/lib/wii/libogc.a(exi.o)
 .sbss.exi_uart_enabled
                0x00000000        0x0 /opt/devkitpro/libogc/lib/wii/libogc.a(exi.o)
 .text          0x00000000        0x0 /opt/devkitpro/libogc/lib/wii/libogc.a(mutex.o)
 .data          0x00000000        0x0 /opt/devkitpro/libogc/lib/wii/libogc.a(mutex.o)
 .bss           0x00000000        0x0 /opt/devkitpro/libogc/lib/wii/libogc.a(mutex.o)
 .text.LWP_MutexTryLock
                0x00000000        0x0 /opt/devkitpro/libogc/lib/wii/libogc.a(mutex.o)
 .data          0x00000000        0x0 /opt/devkitpro/libogc/lib/wii/libogc.a(cache_asm.o)
 .bss           0x00000000        0x0 /opt/devkitpro/libogc/lib/wii/libogc.a(cache_asm.o)
 .data          0x00000000        0x0 /opt/devkitpro/libogc/lib/wii/libogc.a(decrementer_handler.o)
 .bss           0x00000000        0x0 /opt/devkitpro/libogc/lib/wii/libogc.a(decrementer_handler.o)
 .text          0x00000000        0x0 /opt/devkitpro/libogc/lib/wii/libogc.a(kprintf.o)
 .data          0x00000000        0x0 /opt/devkitpro/libogc/lib/wii/libogc.a(kprintf.o)
 .bss           0x00000000        0x0 /opt/devkitpro/libogc/lib/wii/libogc.a(kprintf.o)
 .text          0x00000000        0x0 /opt/devkitpro/libogc/lib/wii/libogc.a(console.o)
 .data          0x00000000        0x0 /opt/devkitpro/libogc/lib/wii/libogc.a(console.o)
 .bss           0x00000000        0x0 /opt/devkitpro/libogc/lib/wii/libogc.a(console.o)
 .text.CON_GetMetrics
                0x00000000        0x0 /opt/devkitpro/libogc/lib/wii/libogc.a(console.o)
 .text.__console_init_ex
                0x00000000        0x0 /opt/devkitpro/libogc/lib/wii/libogc.a(console.o)
 .text.CON_InitEx
                0x00000000        0x0 /opt/devkitpro/libogc/lib/wii/libogc.a(console.o)
 .text.CON_Init
                0x00000000        0x0 /opt/devkitpro/libogc/lib/wii/libogc.a(console.o)
 .text.__console_vipostcb
                0x00000000        0x0 /opt/devkitpro/libogc/lib/wii/libogc.a(console.o)
 .sbss._console_buffer
                0x00000000        0x0 /opt/devkitpro/libogc/lib/wii/libogc.a(console.o)
 .text          0x00000000        0x0 /opt/devkitpro/libogc/lib/wii/libogc.a(lwp_sema.o)
 .data          0x00000000        0x0 /opt/devkitpro/libogc/lib/wii/libogc.a(lwp_sema.o)
 .bss           0x00000000        0x0 /opt/devkitpro/libogc/lib/wii/libogc.a(lwp_sema.o)
 .text.__lwp_sema_flush
                0x00000000        0x0 /opt/devkitpro/libogc/lib/wii/libogc.a(lwp_sema.o)
 .text.__lwp_sema_seize
                0x00000000        0x0 /opt/devkitpro/libogc/lib/wii/libogc.a(lwp_sema.o)
 .text.__lwp_sema_surrender
                0x00000000        0x0 /opt/devkitpro/libogc/lib/wii/libogc.a(lwp_sema.o)
 .text.__lwp_sema_initialize
                0x00000000        0x0 /opt/devkitpro/libogc/lib/wii/libogc.a(lwp_sema.o)
 .data          0x00000000        0x0 /opt/devkitpro/libogc/lib/wii/libogc.a(exception_handler.o)
 .bss           0x00000000        0x0 /opt/devkitpro/libogc/lib/wii/libogc.a(exception_handler.o)
 .text          0x00000000        0x0 /opt/devkitpro/libogc/lib/wii/libogc.a(console_font_8x16.o)
 .data          0x00000000        0x0 /opt/devkitpro/libogc/lib/wii/libogc.a(console_font_8x16.o)
 .bss           0x00000000        0x0 /opt/devkitpro/libogc/lib/wii/libogc.a(console_font_8x16.o)
 .data          0x00000000        0x0 /opt/devkitpro/devkitPPC/lib/gcc/powerpc-gekko/4.2.3/../../../../powerpc-gekko/lib/libm.a(lib_a-s_atan2.o)
 .bss           0x00000000        0x0 /opt/devkitpro/devkitPPC/lib/gcc/powerpc-gekko/4.2.3/../../../../powerpc-gekko/lib/libm.a(lib_a-s_atan2.o)
 .data          0x00000000        0x0 /opt/devkitpro/devkitPPC/lib/gcc/powerpc-gekko/4.2.3/../../../../powerpc-gekko/lib/libm.a(lib_a-s_atangent.o)
 .bss           0x00000000        0x0 /opt/devkitpro/devkitPPC/lib/gcc/powerpc-gekko/4.2.3/../../../../powerpc-gekko/lib/libm.a(lib_a-s_atangent.o)
 .data          0x00000000        0x0 /opt/devkitpro/devkitPPC/lib/gcc/powerpc-gekko/4.2.3/../../../../powerpc-gekko/lib/libm.a(lib_a-s_cos.o)
 .bss           0x00000000        0x0 /opt/devkitpro/devkitPPC/lib/gcc/powerpc-gekko/4.2.3/../../../../powerpc-gekko/lib/libm.a(lib_a-s_cos.o)
 .data          0x00000000        0x0 /opt/devkitpro/devkitPPC/lib/gcc/powerpc-gekko/4.2.3/../../../../powerpc-gekko/lib/libm.a(lib_a-s_fabs.o)
 .bss           0x00000000        0x0 /opt/devkitpro/devkitPPC/lib/gcc/powerpc-gekko/4.2.3/../../../../powerpc-gekko/lib/libm.a(lib_a-s_fabs.o)
 .data          0x00000000        0x0 /opt/devkitpro/devkitPPC/lib/gcc/powerpc-gekko/4.2.3/../../../../powerpc-gekko/lib/libm.a(lib_a-s_frexp.o)
 .bss           0x00000000        0x0 /opt/devkitpro/devkitPPC/lib/gcc/powerpc-gekko/4.2.3/../../../../powerpc-gekko/lib/libm.a(lib_a-s_frexp.o)
 .text          0x00000000        0x0 /opt/devkitpro/devkitPPC/lib/gcc/powerpc-gekko/4.2.3/../../../../powerpc-gekko/lib/libm.a(lib_a-s_mathcnst.o)
 .data          0x00000000        0x0 /opt/devkitpro/devkitPPC/lib/gcc/powerpc-gekko/4.2.3/../../../../powerpc-gekko/lib/libm.a(lib_a-s_mathcnst.o)
 .bss           0x00000000        0x0 /opt/devkitpro/devkitPPC/lib/gcc/powerpc-gekko/4.2.3/../../../../powerpc-gekko/lib/libm.a(lib_a-s_mathcnst.o)
 .data          0x00000000        0x0 /opt/devkitpro/devkitPPC/lib/gcc/powerpc-gekko/4.2.3/../../../../powerpc-gekko/lib/libm.a(lib_a-s_numtest.o)
 .bss           0x00000000        0x0 /opt/devkitpro/devkitPPC/lib/gcc/powerpc-gekko/4.2.3/../../../../powerpc-gekko/lib/libm.a(lib_a-s_numtest.o)
 .data          0x00000000        0x0 /opt/devkitpro/devkitPPC/lib/gcc/powerpc-gekko/4.2.3/../../../../powerpc-gekko/lib/libm.a(lib_a-s_sin.o)
 .bss           0x00000000        0x0 /opt/devkitpro/devkitPPC/lib/gcc/powerpc-gekko/4.2.3/../../../../powerpc-gekko/lib/libm.a(lib_a-s_sin.o)
 .data          0x00000000        0x0 /opt/devkitpro/devkitPPC/lib/gcc/powerpc-gekko/4.2.3/../../../../powerpc-gekko/lib/libm.a(lib_a-s_sine.o)
 .bss           0x00000000        0x0 /opt/devkitpro/devkitPPC/lib/gcc/powerpc-gekko/4.2.3/../../../../powerpc-gekko/lib/libm.a(lib_a-s_sine.o)
 .data          0x00000000        0x0 /opt/devkitpro/devkitPPC/lib/gcc/powerpc-gekko/4.2.3/../../../../powerpc-gekko/lib/libm.a(lib_a-s_sqrt.o)
 .bss           0x00000000        0x0 /opt/devkitpro/devkitPPC/lib/gcc/powerpc-gekko/4.2.3/../../../../powerpc-gekko/lib/libm.a(lib_a-s_sqrt.o)
 .data          0x00000000        0x0 /opt/devkitpro/devkitPPC/lib/gcc/powerpc-gekko/4.2.3/../../../../powerpc-gekko/lib/libm.a(lib_a-sf_atan.o)
 .bss           0x00000000        0x0 /opt/devkitpro/devkitPPC/lib/gcc/powerpc-gekko/4.2.3/../../../../powerpc-gekko/lib/libm.a(lib_a-sf_atan.o)
 .data          0x00000000        0x0 /opt/devkitpro/devkitPPC/lib/gcc/powerpc-gekko/4.2.3/../../../../powerpc-gekko/lib/libm.a(lib_a-sf_atan2.o)
 .bss           0x00000000        0x0 /opt/devkitpro/devkitPPC/lib/gcc/powerpc-gekko/4.2.3/../../../../powerpc-gekko/lib/libm.a(lib_a-sf_atan2.o)
 .data          0x00000000        0x0 /opt/devkitpro/devkitPPC/lib/gcc/powerpc-gekko/4.2.3/../../../../powerpc-gekko/lib/libm.a(lib_a-sf_atangent.o)
 .bss           0x00000000        0x0 /opt/devkitpro/devkitPPC/lib/gcc/powerpc-gekko/4.2.3/../../../../powerpc-gekko/lib/libm.a(lib_a-sf_atangent.o)
 .data          0x00000000        0x0 /opt/devkitpro/devkitPPC/lib/gcc/powerpc-gekko/4.2.3/../../../../powerpc-gekko/lib/libm.a(lib_a-sf_cos.o)
 .bss           0x00000000        0x0 /opt/devkitpro/devkitPPC/lib/gcc/powerpc-gekko/4.2.3/../../../../powerpc-gekko/lib/libm.a(lib_a-sf_cos.o)
 .data          0x00000000        0x0 /opt/devkitpro/devkitPPC/lib/gcc/powerpc-gekko/4.2.3/../../../../powerpc-gekko/lib/libm.a(lib_a-sf_fabs.o)
 .bss           0x00000000        0x0 /opt/devkitpro/devkitPPC/lib/gcc/powerpc-gekko/4.2.3/../../../../powerpc-gekko/lib/libm.a(lib_a-sf_fabs.o)
 .data          0x00000000        0x0 /opt/devkitpro/devkitPPC/lib/gcc/powerpc-gekko/4.2.3/../../../../powerpc-gekko/lib/libm.a(lib_a-sf_frexp.o)
 .bss           0x00000000        0x0 /opt/devkitpro/devkitPPC/lib/gcc/powerpc-gekko/4.2.3/../../../../powerpc-gekko/lib/libm.a(lib_a-sf_frexp.o)
 .data          0x00000000        0x0 /opt/devkitpro/devkitPPC/lib/gcc/powerpc-gekko/4.2.3/../../../../powerpc-gekko/lib/libm.a(lib_a-sf_isinff.o)
 .bss           0x00000000        0x0 /opt/devkitpro/devkitPPC/lib/gcc/powerpc-gekko/4.2.3/../../../../powerpc-gekko/lib/libm.a(lib_a-sf_isinff.o)
 .data          0x00000000        0x0 /opt/devkitpro/devkitPPC/lib/gcc/powerpc-gekko/4.2.3/../../../../powerpc-gekko/lib/libm.a(lib_a-sf_isnanf.o)
 .bss           0x00000000        0x0 /opt/devkitpro/devkitPPC/lib/gcc/powerpc-gekko/4.2.3/../../../../powerpc-gekko/lib/libm.a(lib_a-sf_isnanf.o)
 .data          0x00000000        0x0 /opt/devkitpro/devkitPPC/lib/gcc/powerpc-gekko/4.2.3/../../../../powerpc-gekko/lib/libm.a(lib_a-sf_numtest.o)
 .bss           0x00000000        0x0 /opt/devkitpro/devkitPPC/lib/gcc/powerpc-gekko/4.2.3/../../../../powerpc-gekko/lib/libm.a(lib_a-sf_numtest.o)
 .data          0x00000000        0x0 /opt/devkitpro/devkitPPC/lib/gcc/powerpc-gekko/4.2.3/../../../../powerpc-gekko/lib/libm.a(lib_a-sf_sin.o)
 .bss           0x00000000        0x0 /opt/devkitpro/devkitPPC/lib/gcc/powerpc-gekko/4.2.3/../../../../powerpc-gekko/lib/libm.a(lib_a-sf_sin.o)
 .data          0x00000000        0x0 /opt/devkitpro/devkitPPC/lib/gcc/powerpc-gekko/4.2.3/../../../../powerpc-gekko/lib/libm.a(lib_a-sf_sine.o)
 .bss           0x00000000        0x0 /opt/devkitpro/devkitPPC/lib/gcc/powerpc-gekko/4.2.3/../../../../powerpc-gekko/lib/libm.a(lib_a-sf_sine.o)
 .data          0x00000000        0x0 /opt/devkitpro/devkitPPC/lib/gcc/powerpc-gekko/4.2.3/../../../../powerpc-gekko/lib/libm.a(lib_a-sf_sqrt.o)
 .bss           0x00000000        0x0 /opt/devkitpro/devkitPPC/lib/gcc/powerpc-gekko/4.2.3/../../../../powerpc-gekko/lib/libm.a(lib_a-sf_sqrt.o)
 .text          0x00000000        0x0 /opt/devkitpro/devkitPPC/lib/gcc/powerpc-gekko/4.2.3/../../../../powerpc-gekko/lib/libm.a(lib_a-sf_tan.o)
 .data          0x00000000        0x0 /opt/devkitpro/devkitPPC/lib/gcc/powerpc-gekko/4.2.3/../../../../powerpc-gekko/lib/libm.a(lib_a-sf_tan.o)
 .bss           0x00000000        0x0 /opt/devkitpro/devkitPPC/lib/gcc/powerpc-gekko/4.2.3/../../../../powerpc-gekko/lib/libm.a(lib_a-sf_tan.o)
 .rodata.cst4   0x00000000        0x0 /opt/devkitpro/devkitPPC/lib/gcc/powerpc-gekko/4.2.3/../../../../powerpc-gekko/lib/libm.a(lib_a-sf_tan.o)
 .rodata.cst8   0x00000000        0x0 /opt/devkitpro/devkitPPC/lib/gcc/powerpc-gekko/4.2.3/../../../../powerpc-gekko/lib/libm.a(lib_a-sf_tan.o)
 .data          0x00000000        0x0 /opt/devkitpro/devkitPPC/lib/gcc/powerpc-gekko/4.2.3/../../../../powerpc-gekko/lib/libm.a(lib_a-s_ispos.o)
 .bss           0x00000000        0x0 /opt/devkitpro/devkitPPC/lib/gcc/powerpc-gekko/4.2.3/../../../../powerpc-gekko/lib/libm.a(lib_a-s_ispos.o)
 .data          0x00000000        0x0 /opt/devkitpro/devkitPPC/lib/gcc/powerpc-gekko/4.2.3/../../../../powerpc-gekko/lib/libm.a(lib_a-s_ldexp.o)
 .bss           0x00000000        0x0 /opt/devkitpro/devkitPPC/lib/gcc/powerpc-gekko/4.2.3/../../../../powerpc-gekko/lib/libm.a(lib_a-s_ldexp.o)
 .data          0x00000000        0x0 /opt/devkitpro/devkitPPC/lib/gcc/powerpc-gekko/4.2.3/../../../../powerpc-gekko/lib/libm.a(lib_a-sf_ispos.o)
 .bss           0x00000000        0x0 /opt/devkitpro/devkitPPC/lib/gcc/powerpc-gekko/4.2.3/../../../../powerpc-gekko/lib/libm.a(lib_a-sf_ispos.o)
 .data          0x00000000        0x0 /opt/devkitpro/devkitPPC/lib/gcc/powerpc-gekko/4.2.3/../../../../powerpc-gekko/lib/libm.a(lib_a-sf_ldexp.o)
 .bss           0x00000000        0x0 /opt/devkitpro/devkitPPC/lib/gcc/powerpc-gekko/4.2.3/../../../../powerpc-gekko/lib/libm.a(lib_a-sf_ldexp.o)
 .data          0x00000000        0x0 /opt/devkitpro/devkitPPC/lib/gcc/powerpc-gekko/4.2.3/libgcc.a(_udivdi3.o)
 .bss           0x00000000        0x0 /opt/devkitpro/devkitPPC/lib/gcc/powerpc-gekko/4.2.3/libgcc.a(_udivdi3.o)
 .data          0x00000000        0x0 /opt/devkitpro/devkitPPC/lib/gcc/powerpc-gekko/4.2.3/../../../../powerpc-gekko/lib/libsysbase.a(abort.o)
 .bss           0x00000000        0x0 /opt/devkitpro/devkitPPC/lib/gcc/powerpc-gekko/4.2.3/../../../../powerpc-gekko/lib/libsysbase.a(abort.o)
 .text          0x00000000        0x0 /opt/devkitpro/devkitPPC/lib/gcc/powerpc-gekko/4.2.3/../../../../powerpc-gekko/lib/libsysbase.a(iosupport.o)
 .bss           0x00000000        0x0 /opt/devkitpro/devkitPPC/lib/gcc/powerpc-gekko/4.2.3/../../../../powerpc-gekko/lib/libsysbase.a(iosupport.o)
 .data          0x00000000        0x0 /opt/devkitpro/devkitPPC/lib/gcc/powerpc-gekko/4.2.3/../../../../powerpc-gekko/lib/libsysbase.a(_exit.o)
 .bss           0x00000000        0x0 /opt/devkitpro/devkitPPC/lib/gcc/powerpc-gekko/4.2.3/../../../../powerpc-gekko/lib/libsysbase.a(_exit.o)
 .data          0x00000000        0x0 /opt/devkitpro/devkitPPC/lib/gcc/powerpc-gekko/4.2.3/../../../../powerpc-gekko/lib/libsysbase.a(build_argv.o)
 .bss           0x00000000        0x0 /opt/devkitpro/devkitPPC/lib/gcc/powerpc-gekko/4.2.3/../../../../powerpc-gekko/lib/libsysbase.a(build_argv.o)
 .data          0x00000000        0x0 /opt/devkitpro/devkitPPC/lib/gcc/powerpc-gekko/4.2.3/../../../../powerpc-gekko/lib/libsysbase.a(syscall_support.o)
 .data          0x00000000        0x0 /opt/devkitpro/devkitPPC/lib/gcc/powerpc-gekko/4.2.3/../../../../powerpc-gekko/lib/libc.a(lib_a-calloc.o)
 .bss           0x00000000        0x0 /opt/devkitpro/devkitPPC/lib/gcc/powerpc-gekko/4.2.3/../../../../powerpc-gekko/lib/libc.a(lib_a-calloc.o)
 .data          0x00000000        0x0 /opt/devkitpro/devkitPPC/lib/gcc/powerpc-gekko/4.2.3/../../../../powerpc-gekko/lib/libc.a(lib_a-callocr.o)
 .bss           0x00000000        0x0 /opt/devkitpro/devkitPPC/lib/gcc/powerpc-gekko/4.2.3/../../../../powerpc-gekko/lib/libc.a(lib_a-callocr.o)
 .text          0x00000000        0x0 /opt/devkitpro/devkitPPC/lib/gcc/powerpc-gekko/4.2.3/../../../../powerpc-gekko/lib/libc.a(lib_a-ctype_.o)
 .data          0x00000000        0x0 /opt/devkitpro/devkitPPC/lib/gcc/powerpc-gekko/4.2.3/../../../../powerpc-gekko/lib/libc.a(lib_a-ctype_.o)
 .bss           0x00000000        0x0 /opt/devkitpro/devkitPPC/lib/gcc/powerpc-gekko/4.2.3/../../../../powerpc-gekko/lib/libc.a(lib_a-ctype_.o)
 .data          0x00000000        0x0 /opt/devkitpro/devkitPPC/lib/gcc/powerpc-gekko/4.2.3/../../../../powerpc-gekko/lib/libc.a(lib_a-errno.o)
 .bss           0x00000000        0x0 /opt/devkitpro/devkitPPC/lib/gcc/powerpc-gekko/4.2.3/../../../../powerpc-gekko/lib/libc.a(lib_a-errno.o)
 .data          0x00000000        0x0 /opt/devkitpro/devkitPPC/lib/gcc/powerpc-gekko/4.2.3/../../../../powerpc-gekko/lib/libc.a(lib_a-exit.o)
 .bss           0x00000000        0x0 /opt/devkitpro/devkitPPC/lib/gcc/powerpc-gekko/4.2.3/../../../../powerpc-gekko/lib/libc.a(lib_a-exit.o)
 .data          0x00000000        0x0 /opt/devkitpro/devkitPPC/lib/gcc/powerpc-gekko/4.2.3/../../../../powerpc-gekko/lib/libc.a(lib_a-fprintf.o)
 .bss           0x00000000        0x0 /opt/devkitpro/devkitPPC/lib/gcc/powerpc-gekko/4.2.3/../../../../powerpc-gekko/lib/libc.a(lib_a-fprintf.o)
 .data          0x00000000        0x0 /opt/devkitpro/devkitPPC/lib/gcc/powerpc-gekko/4.2.3/../../../../powerpc-gekko/lib/libc.a(lib_a-fwrite.o)
 .bss           0x00000000        0x0 /opt/devkitpro/devkitPPC/lib/gcc/powerpc-gekko/4.2.3/../../../../powerpc-gekko/lib/libc.a(lib_a-fwrite.o)
 .text          0x00000000        0x0 /opt/devkitpro/devkitPPC/lib/gcc/powerpc-gekko/4.2.3/../../../../powerpc-gekko/lib/libc.a(lib_a-impure.o)
 .bss           0x00000000        0x0 /opt/devkitpro/devkitPPC/lib/gcc/powerpc-gekko/4.2.3/../../../../powerpc-gekko/lib/libc.a(lib_a-impure.o)
 .data          0x00000000        0x0 /opt/devkitpro/devkitPPC/lib/gcc/powerpc-gekko/4.2.3/../../../../powerpc-gekko/lib/libc.a(lib_a-malign.o)
 .bss           0x00000000        0x0 /opt/devkitpro/devkitPPC/lib/gcc/powerpc-gekko/4.2.3/../../../../powerpc-gekko/lib/libc.a(lib_a-malign.o)
 .data          0x00000000        0x0 /opt/devkitpro/devkitPPC/lib/gcc/powerpc-gekko/4.2.3/../../../../powerpc-gekko/lib/libc.a(lib_a-malignr.o)
 .bss           0x00000000        0x0 /opt/devkitpro/devkitPPC/lib/gcc/powerpc-gekko/4.2.3/../../../../powerpc-gekko/lib/libc.a(lib_a-malignr.o)
 .data          0x00000000        0x0 /opt/devkitpro/devkitPPC/lib/gcc/powerpc-gekko/4.2.3/../../../../powerpc-gekko/lib/libc.a(lib_a-malloc.o)
 .bss           0x00000000        0x0 /opt/devkitpro/devkitPPC/lib/gcc/powerpc-gekko/4.2.3/../../../../powerpc-gekko/lib/libc.a(lib_a-malloc.o)
 .data          0x00000000        0x0 /opt/devkitpro/devkitPPC/lib/gcc/powerpc-gekko/4.2.3/../../../../powerpc-gekko/lib/libc.a(lib_a-memcmp.o)
 .bss           0x00000000        0x0 /opt/devkitpro/devkitPPC/lib/gcc/powerpc-gekko/4.2.3/../../../../powerpc-gekko/lib/libc.a(lib_a-memcmp.o)
 .data          0x00000000        0x0 /opt/devkitpro/devkitPPC/lib/gcc/powerpc-gekko/4.2.3/../../../../powerpc-gekko/lib/libc.a(lib_a-memcpy.o)
 .bss           0x00000000        0x0 /opt/devkitpro/devkitPPC/lib/gcc/powerpc-gekko/4.2.3/../../../../powerpc-gekko/lib/libc.a(lib_a-memcpy.o)
 .data          0x00000000        0x0 /opt/devkitpro/devkitPPC/lib/gcc/powerpc-gekko/4.2.3/../../../../powerpc-gekko/lib/libc.a(lib_a-memmove.o)
 .bss           0x00000000        0x0 /opt/devkitpro/devkitPPC/lib/gcc/powerpc-gekko/4.2.3/../../../../powerpc-gekko/lib/libc.a(lib_a-memmove.o)
 .data          0x00000000        0x0 /opt/devkitpro/devkitPPC/lib/gcc/powerpc-gekko/4.2.3/../../../../powerpc-gekko/lib/libc.a(lib_a-memset.o)
 .bss           0x00000000        0x0 /opt/devkitpro/devkitPPC/lib/gcc/powerpc-gekko/4.2.3/../../../../powerpc-gekko/lib/libc.a(lib_a-memset.o)
 .data          0x00000000        0x0 /opt/devkitpro/devkitPPC/lib/gcc/powerpc-gekko/4.2.3/../../../../powerpc-gekko/lib/libc.a(lib_a-printf.o)
 .bss           0x00000000        0x0 /opt/devkitpro/devkitPPC/lib/gcc/powerpc-gekko/4.2.3/../../../../powerpc-gekko/lib/libc.a(lib_a-printf.o)
 .data          0x00000000        0x0 /opt/devkitpro/devkitPPC/lib/gcc/powerpc-gekko/4.2.3/../../../../powerpc-gekko/lib/libc.a(lib_a-puts.o)
 .bss           0x00000000        0x0 /opt/devkitpro/devkitPPC/lib/gcc/powerpc-gekko/4.2.3/../../../../powerpc-gekko/lib/libc.a(lib_a-puts.o)
 .data          0x00000000        0x0 /opt/devkitpro/devkitPPC/lib/gcc/powerpc-gekko/4.2.3/../../../../powerpc-gekko/lib/libc.a(lib_a-reent.o)
 .bss           0x00000000        0x0 /opt/devkitpro/devkitPPC/lib/gcc/powerpc-gekko/4.2.3/../../../../powerpc-gekko/lib/libc.a(lib_a-reent.o)
 .data          0x00000000        0x0 /opt/devkitpro/devkitPPC/lib/gcc/powerpc-gekko/4.2.3/../../../../powerpc-gekko/lib/libc.a(lib_a-setvbuf.o)
 .bss           0x00000000        0x0 /opt/devkitpro/devkitPPC/lib/gcc/powerpc-gekko/4.2.3/../../../../powerpc-gekko/lib/libc.a(lib_a-setvbuf.o)
 .data          0x00000000        0x0 /opt/devkitpro/devkitPPC/lib/gcc/powerpc-gekko/4.2.3/../../../../powerpc-gekko/lib/libc.a(lib_a-snprintf.o)
 .bss           0x00000000        0x0 /opt/devkitpro/devkitPPC/lib/gcc/powerpc-gekko/4.2.3/../../../../powerpc-gekko/lib/libc.a(lib_a-snprintf.o)
 .data          0x00000000        0x0 /opt/devkitpro/devkitPPC/lib/gcc/powerpc-gekko/4.2.3/../../../../powerpc-gekko/lib/libc.a(lib_a-strchr.o)
 .bss           0x00000000        0x0 /opt/devkitpro/devkitPPC/lib/gcc/powerpc-gekko/4.2.3/../../../../powerpc-gekko/lib/libc.a(lib_a-strchr.o)
 .data          0x00000000        0x0 /opt/devkitpro/devkitPPC/lib/gcc/powerpc-gekko/4.2.3/../../../../powerpc-gekko/lib/libc.a(lib_a-strcmp.o)
 .bss           0x00000000        0x0 /opt/devkitpro/devkitPPC/lib/gcc/powerpc-gekko/4.2.3/../../../../powerpc-gekko/lib/libc.a(lib_a-strcmp.o)
 .data          0x00000000        0x0 /opt/devkitpro/devkitPPC/lib/gcc/powerpc-gekko/4.2.3/../../../../powerpc-gekko/lib/libc.a(lib_a-strlen.o)
 .bss           0x00000000        0x0 /opt/devkitpro/devkitPPC/lib/gcc/powerpc-gekko/4.2.3/../../../../powerpc-gekko/lib/libc.a(lib_a-strlen.o)
 .text          0x00000000        0x0 /opt/devkitpro/devkitPPC/lib/gcc/powerpc-gekko/4.2.3/../../../../powerpc-gekko/lib/libc.a(lib_a-strncmp.o)
 .data          0x00000000        0x0 /opt/devkitpro/devkitPPC/lib/gcc/powerpc-gekko/4.2.3/../../../../powerpc-gekko/lib/libc.a(lib_a-strncmp.o)
 .bss           0x00000000        0x0 /opt/devkitpro/devkitPPC/lib/gcc/powerpc-gekko/4.2.3/../../../../powerpc-gekko/lib/libc.a(lib_a-strncmp.o)
 .text          0x00000000        0x0 /opt/devkitpro/devkitPPC/lib/gcc/powerpc-gekko/4.2.3/../../../../powerpc-gekko/lib/libc.a(lib_a-strncpy.o)
 .data          0x00000000        0x0 /opt/devkitpro/devkitPPC/lib/gcc/powerpc-gekko/4.2.3/../../../../powerpc-gekko/lib/libc.a(lib_a-strncpy.o)
 .bss           0x00000000        0x0 /opt/devkitpro/devkitPPC/lib/gcc/powerpc-gekko/4.2.3/../../../../powerpc-gekko/lib/libc.a(lib_a-strncpy.o)
 .data          0x00000000        0x0 /opt/devkitpro/devkitPPC/lib/gcc/powerpc-gekko/4.2.3/../../../../powerpc-gekko/lib/libc.a(lib_a-strnlen.o)
 .bss           0x00000000        0x0 /opt/devkitpro/devkitPPC/lib/gcc/powerpc-gekko/4.2.3/../../../../powerpc-gekko/lib/libc.a(lib_a-strnlen.o)
 .data          0x00000000        0x0 /opt/devkitpro/devkitPPC/lib/gcc/powerpc-gekko/4.2.3/../../../../powerpc-gekko/lib/libc.a(lib_a-syswrite.o)
 .bss           0x00000000        0x0 /opt/devkitpro/devkitPPC/lib/gcc/powerpc-gekko/4.2.3/../../../../powerpc-gekko/lib/libc.a(lib_a-syswrite.o)
 .data          0x00000000        0x0 /opt/devkitpro/devkitPPC/lib/gcc/powerpc-gekko/4.2.3/../../../../powerpc-gekko/lib/libc.a(lib_a-vfprintf.o)
 .bss           0x00000000        0x0 /opt/devkitpro/devkitPPC/lib/gcc/powerpc-gekko/4.2.3/../../../../powerpc-gekko/lib/libc.a(lib_a-vfprintf.o)
 .text          0x00000000        0x0 /opt/devkitpro/devkitPPC/lib/gcc/powerpc-gekko/4.2.3/../../../../powerpc-gekko/lib/libc.a(lib_a-vsprintf.o)
 .data          0x00000000        0x0 /opt/devkitpro/devkitPPC/lib/gcc/powerpc-gekko/4.2.3/../../../../powerpc-gekko/lib/libc.a(lib_a-vsprintf.o)
 .bss           0x00000000        0x0 /opt/devkitpro/devkitPPC/lib/gcc/powerpc-gekko/4.2.3/../../../../powerpc-gekko/lib/libc.a(lib_a-vsprintf.o)
 .data          0x00000000        0x0 /opt/devkitpro/devkitPPC/lib/gcc/powerpc-gekko/4.2.3/../../../../powerpc-gekko/lib/libc.a(lib_a-wcrtomb.o)
 .bss           0x00000000        0x0 /opt/devkitpro/devkitPPC/lib/gcc/powerpc-gekko/4.2.3/../../../../powerpc-gekko/lib/libc.a(lib_a-wcrtomb.o)
 .data          0x00000000        0x0 /opt/devkitpro/devkitPPC/lib/gcc/powerpc-gekko/4.2.3/../../../../powerpc-gekko/lib/libc.a(lib_a-wcsrtombs.o)
 .bss           0x00000000        0x0 /opt/devkitpro/devkitPPC/lib/gcc/powerpc-gekko/4.2.3/../../../../powerpc-gekko/lib/libc.a(lib_a-wcsrtombs.o)
 .data          0x00000000        0x0 /opt/devkitpro/devkitPPC/lib/gcc/powerpc-gekko/4.2.3/../../../../powerpc-gekko/lib/libc.a(lib_a-wctomb_r.o)
 .bss           0x00000000        0x0 /opt/devkitpro/devkitPPC/lib/gcc/powerpc-gekko/4.2.3/../../../../powerpc-gekko/lib/libc.a(lib_a-wctomb_r.o)
 .data          0x00000000        0x0 /opt/devkitpro/devkitPPC/lib/gcc/powerpc-gekko/4.2.3/../../../../powerpc-gekko/lib/libc.a(lib_a-wsetup.o)
 .bss           0x00000000        0x0 /opt/devkitpro/devkitPPC/lib/gcc/powerpc-gekko/4.2.3/../../../../powerpc-gekko/lib/libc.a(lib_a-wsetup.o)
 .data          0x00000000        0x0 /opt/devkitpro/devkitPPC/lib/gcc/powerpc-gekko/4.2.3/../../../../powerpc-gekko/lib/libc.a(lib_a-__call_atexit.o)
 .bss           0x00000000        0x0 /opt/devkitpro/devkitPPC/lib/gcc/powerpc-gekko/4.2.3/../../../../powerpc-gekko/lib/libc.a(lib_a-__call_atexit.o)
 .data          0x00000000        0x0 /opt/devkitpro/devkitPPC/lib/gcc/powerpc-gekko/4.2.3/../../../../powerpc-gekko/lib/libc.a(lib_a-dtoa.o)
 .bss           0x00000000        0x0 /opt/devkitpro/devkitPPC/lib/gcc/powerpc-gekko/4.2.3/../../../../powerpc-gekko/lib/libc.a(lib_a-dtoa.o)
 .data          0x00000000        0x0 /opt/devkitpro/devkitPPC/lib/gcc/powerpc-gekko/4.2.3/../../../../powerpc-gekko/lib/libc.a(lib_a-fflush.o)
 .bss           0x00000000        0x0 /opt/devkitpro/devkitPPC/lib/gcc/powerpc-gekko/4.2.3/../../../../powerpc-gekko/lib/libc.a(lib_a-fflush.o)
 .data          0x00000000        0x0 /opt/devkitpro/devkitPPC/lib/gcc/powerpc-gekko/4.2.3/../../../../powerpc-gekko/lib/libc.a(lib_a-findfp.o)
 .data          0x00000000        0x0 /opt/devkitpro/devkitPPC/lib/gcc/powerpc-gekko/4.2.3/../../../../powerpc-gekko/lib/libc.a(lib_a-freer.o)
 .bss           0x00000000        0x0 /opt/devkitpro/devkitPPC/lib/gcc/powerpc-gekko/4.2.3/../../../../powerpc-gekko/lib/libc.a(lib_a-freer.o)
 .data          0x00000000        0x0 /opt/devkitpro/devkitPPC/lib/gcc/powerpc-gekko/4.2.3/../../../../powerpc-gekko/lib/libc.a(lib_a-fvwrite.o)
 .bss           0x00000000        0x0 /opt/devkitpro/devkitPPC/lib/gcc/powerpc-gekko/4.2.3/../../../../powerpc-gekko/lib/libc.a(lib_a-fvwrite.o)
 .data          0x00000000        0x0 /opt/devkitpro/devkitPPC/lib/gcc/powerpc-gekko/4.2.3/../../../../powerpc-gekko/lib/libc.a(lib_a-fwalk.o)
 .bss           0x00000000        0x0 /opt/devkitpro/devkitPPC/lib/gcc/powerpc-gekko/4.2.3/../../../../powerpc-gekko/lib/libc.a(lib_a-fwalk.o)
 .bss           0x00000000        0x0 /opt/devkitpro/devkitPPC/lib/gcc/powerpc-gekko/4.2.3/../../../../powerpc-gekko/lib/libc.a(lib_a-locale.o)
 .sbss          0x00000000        0x0 /opt/devkitpro/devkitPPC/lib/gcc/powerpc-gekko/4.2.3/../../../../powerpc-gekko/lib/libc.a(lib_a-locale.o)
 .data          0x00000000        0x0 /opt/devkitpro/devkitPPC/lib/gcc/powerpc-gekko/4.2.3/../../../../powerpc-gekko/lib/libc.a(lib_a-makebuf.o)
 .bss           0x00000000        0x0 /opt/devkitpro/devkitPPC/lib/gcc/powerpc-gekko/4.2.3/../../../../powerpc-gekko/lib/libc.a(lib_a-makebuf.o)
 .data          0x00000000        0x0 /opt/devkitpro/devkitPPC/lib/gcc/powerpc-gekko/4.2.3/../../../../powerpc-gekko/lib/libc.a(lib_a-mbtowc_r.o)
 .bss           0x00000000        0x0 /opt/devkitpro/devkitPPC/lib/gcc/powerpc-gekko/4.2.3/../../../../powerpc-gekko/lib/libc.a(lib_a-mbtowc_r.o)
 .data          0x00000000        0x0 /opt/devkitpro/devkitPPC/lib/gcc/powerpc-gekko/4.2.3/../../../../powerpc-gekko/lib/libc.a(lib_a-memchr.o)
 .bss           0x00000000        0x0 /opt/devkitpro/devkitPPC/lib/gcc/powerpc-gekko/4.2.3/../../../../powerpc-gekko/lib/libc.a(lib_a-memchr.o)
 .data          0x00000000        0x0 /opt/devkitpro/devkitPPC/lib/gcc/powerpc-gekko/4.2.3/../../../../powerpc-gekko/lib/libc.a(lib_a-mprec.o)
 .bss           0x00000000        0x0 /opt/devkitpro/devkitPPC/lib/gcc/powerpc-gekko/4.2.3/../../../../powerpc-gekko/lib/libc.a(lib_a-mprec.o)
 .data          0x00000000        0x0 /opt/devkitpro/devkitPPC/lib/gcc/powerpc-gekko/4.2.3/../../../../powerpc-gekko/lib/libc.a(lib_a-reallocr.o)
 .bss           0x00000000        0x0 /opt/devkitpro/devkitPPC/lib/gcc/powerpc-gekko/4.2.3/../../../../powerpc-gekko/lib/libc.a(lib_a-reallocr.o)
 .data          0x00000000        0x0 /opt/devkitpro/devkitPPC/lib/gcc/powerpc-gekko/4.2.3/../../../../powerpc-gekko/lib/libc.a(lib_a-s_isinfd.o)
 .bss           0x00000000        0x0 /opt/devkitpro/devkitPPC/lib/gcc/powerpc-gekko/4.2.3/../../../../powerpc-gekko/lib/libc.a(lib_a-s_isinfd.o)
 .data          0x00000000        0x0 /opt/devkitpro/devkitPPC/lib/gcc/powerpc-gekko/4.2.3/../../../../powerpc-gekko/lib/libc.a(lib_a-s_isnand.o)
 .bss           0x00000000        0x0 /opt/devkitpro/devkitPPC/lib/gcc/powerpc-gekko/4.2.3/../../../../powerpc-gekko/lib/libc.a(lib_a-s_isnand.o)
 .data          0x00000000        0x0 /opt/devkitpro/devkitPPC/lib/gcc/powerpc-gekko/4.2.3/../../../../powerpc-gekko/lib/libc.a(lib_a-stdio.o)
 .bss           0x00000000        0x0 /opt/devkitpro/devkitPPC/lib/gcc/powerpc-gekko/4.2.3/../../../../powerpc-gekko/lib/libc.a(lib_a-stdio.o)
 .data          0x00000000        0x0 /opt/devkitpro/devkitPPC/lib/gcc/powerpc-gekko/4.2.3/../../../../powerpc-gekko/lib/libc.a(lib_a-strcpy.o)
 .bss           0x00000000        0x0 /opt/devkitpro/devkitPPC/lib/gcc/powerpc-gekko/4.2.3/../../../../powerpc-gekko/lib/libc.a(lib_a-strcpy.o)
 .data          0x00000000        0x0 /opt/devkitpro/devkitPPC/lib/gcc/powerpc-gekko/4.2.3/../../../../powerpc-gekko/lib/libc.a(lib_a-fclose.o)
 .bss           0x00000000        0x0 /opt/devkitpro/devkitPPC/lib/gcc/powerpc-gekko/4.2.3/../../../../powerpc-gekko/lib/libc.a(lib_a-fclose.o)
 .data          0x00000000        0x0 /opt/devkitpro/devkitPPC/lib/gcc/powerpc-gekko/4.2.3/../../../../powerpc-gekko/lib/libsysbase.a(close.o)
 .bss           0x00000000        0x0 /opt/devkitpro/devkitPPC/lib/gcc/powerpc-gekko/4.2.3/../../../../powerpc-gekko/lib/libsysbase.a(close.o)
 .data          0x00000000        0x0 /opt/devkitpro/devkitPPC/lib/gcc/powerpc-gekko/4.2.3/../../../../powerpc-gekko/lib/libsysbase.a(fstat.o)
 .bss           0x00000000        0x0 /opt/devkitpro/devkitPPC/lib/gcc/powerpc-gekko/4.2.3/../../../../powerpc-gekko/lib/libsysbase.a(fstat.o)
 .data          0x00000000        0x0 /opt/devkitpro/devkitPPC/lib/gcc/powerpc-gekko/4.2.3/../../../../powerpc-gekko/lib/libsysbase.a(isatty.o)
 .bss           0x00000000        0x0 /opt/devkitpro/devkitPPC/lib/gcc/powerpc-gekko/4.2.3/../../../../powerpc-gekko/lib/libsysbase.a(isatty.o)
 .data          0x00000000        0x0 /opt/devkitpro/devkitPPC/lib/gcc/powerpc-gekko/4.2.3/../../../../powerpc-gekko/lib/libsysbase.a(lseek.o)
 .bss           0x00000000        0x0 /opt/devkitpro/devkitPPC/lib/gcc/powerpc-gekko/4.2.3/../../../../powerpc-gekko/lib/libsysbase.a(lseek.o)
 .data          0x00000000        0x0 /opt/devkitpro/devkitPPC/lib/gcc/powerpc-gekko/4.2.3/../../../../powerpc-gekko/lib/libsysbase.a(read.o)
 .bss           0x00000000        0x0 /opt/devkitpro/devkitPPC/lib/gcc/powerpc-gekko/4.2.3/../../../../powerpc-gekko/lib/libsysbase.a(read.o)
 .data          0x00000000        0x0 /opt/devkitpro/devkitPPC/lib/gcc/powerpc-gekko/4.2.3/../../../../powerpc-gekko/lib/libsysbase.a(sbrk.o)
 .bss           0x00000000        0x0 /opt/devkitpro/devkitPPC/lib/gcc/powerpc-gekko/4.2.3/../../../../powerpc-gekko/lib/libsysbase.a(sbrk.o)
 .data          0x00000000        0x0 /opt/devkitpro/devkitPPC/lib/gcc/powerpc-gekko/4.2.3/../../../../powerpc-gekko/lib/libsysbase.a(write.o)
 .bss           0x00000000        0x0 /opt/devkitpro/devkitPPC/lib/gcc/powerpc-gekko/4.2.3/../../../../powerpc-gekko/lib/libsysbase.a(write.o)
 .data          0x00000000        0x0 /opt/devkitpro/devkitPPC/lib/gcc/powerpc-gekko/4.2.3/../../../../powerpc-gekko/lib/libsysbase.a(flock.o)
 .bss           0x00000000        0x0 /opt/devkitpro/devkitPPC/lib/gcc/powerpc-gekko/4.2.3/../../../../powerpc-gekko/lib/libsysbase.a(flock.o)
 .data          0x00000000        0x0 /opt/devkitpro/devkitPPC/lib/gcc/powerpc-gekko/4.2.3/../../../../powerpc-gekko/lib/libsysbase.a(handle_manager.o)
 .data          0x00000000        0x0 /opt/devkitpro/devkitPPC/lib/gcc/powerpc-gekko/4.2.3/libgcc.a(_umoddi3.o)
 .bss           0x00000000        0x0 /opt/devkitpro/devkitPPC/lib/gcc/powerpc-gekko/4.2.3/libgcc.a(_umoddi3.o)
 .text          0x00000000        0x0 /opt/devkitpro/devkitPPC/lib/gcc/powerpc-gekko/4.2.3/crtsavres.o
 .data          0x00000000        0x0 /opt/devkitpro/devkitPPC/lib/gcc/powerpc-gekko/4.2.3/crtsavres.o
 .bss           0x00000000        0x0 /opt/devkitpro/devkitPPC/lib/gcc/powerpc-gekko/4.2.3/crtsavres.o
 .data          0x00000000        0x0 /opt/devkitpro/devkitPPC/lib/gcc/powerpc-gekko/4.2.3/crtend.o
 .bss           0x00000000        0x0 /opt/devkitpro/devkitPPC/lib/gcc/powerpc-gekko/4.2.3/crtend.o
 .text          0x00000000        0x0 /opt/devkitpro/devkitPPC/lib/gcc/powerpc-gekko/4.2.3/ecrtn.o
 .data          0x00000000        0x0 /opt/devkitpro/devkitPPC/lib/gcc/powerpc-gekko/4.2.3/ecrtn.o
 .bss           0x00000000        0x0 /opt/devkitpro/devkitPPC/lib/gcc/powerpc-gekko/4.2.3/ecrtn.o
 .got           0x00000000        0x0 /opt/devkitpro/devkitPPC/lib/gcc/powerpc-gekko/4.2.3/ecrtn.o
 .got1          0x00000000        0x0 /opt/devkitpro/devkitPPC/lib/gcc/powerpc-gekko/4.2.3/ecrtn.o
 .got2          0x00000000        0x0 /opt/devkitpro/devkitPPC/lib/gcc/powerpc-gekko/4.2.3/ecrtn.o
 .fixup         0x00000000        0x0 /opt/devkitpro/devkitPPC/lib/gcc/powerpc-gekko/4.2.3/ecrtn.o
 .sdata         0x00000000        0x0 /opt/devkitpro/devkitPPC/lib/gcc/powerpc-gekko/4.2.3/ecrtn.o
 .sbss          0x00000000        0x0 /opt/devkitpro/devkitPPC/lib/gcc/powerpc-gekko/4.2.3/ecrtn.o
 .sdata2        0x00000000        0x0 /opt/devkitpro/devkitPPC/lib/gcc/powerpc-gekko/4.2.3/ecrtn.o
 .sbss2         0x00000000        0x0 /opt/devkitpro/devkitPPC/lib/gcc/powerpc-gekko/4.2.3/ecrtn.o
 .gcc_except_table
                0x00000000        0x0 /opt/devkitpro/devkitPPC/lib/gcc/powerpc-gekko/4.2.3/ecrtn.o

Memory Configuration

Name             Origin             Length             Attributes
*default*        0x00000000         0xffffffff

Linker script and memory map

                0x80003f00                . = 0x80003f00

.header         0x80003f00       0xe4
                0x80003f00                file_start = .
                0x80003f00        0x4 LONG 0x100 text_file_start
                0x80003f04        0x4 LONG 0x0
                0x80003f08        0x4 LONG 0x0
                0x80003f0c        0x4 LONG 0x0
                0x80003f10        0x4 LONG 0x0
                0x80003f14        0x4 LONG 0x0
                0x80003f18        0x4 LONG 0x0
                0x80003f1c        0x4 LONG 0x32da0 data_file_start
                0x80003f20        0x4 LONG 0x0
                0x80003f24        0x4 LONG 0x0
                0x80003f28        0x4 LONG 0x0
                0x80003f2c        0x4 LONG 0x0
                0x80003f30        0x4 LONG 0x0
                0x80003f34        0x4 LONG 0x0
                0x80003f38        0x4 LONG 0x0
                0x80003f3c        0x4 LONG 0x0
                0x80003f40        0x4 LONG 0x0
                0x80003f44        0x4 LONG 0x0
                0x80003f48        0x4 LONG 0x80004000 text_mem_start
                0x80003f4c        0x4 LONG 0x0
                0x80003f50        0x4 LONG 0x0
                0x80003f54        0x4 LONG 0x0
                0x80003f58        0x4 LONG 0x0
                0x80003f5c        0x4 LONG 0x0
                0x80003f60        0x4 LONG 0x0
                0x80003f64        0x4 LONG 0x80036ca0 data_mem_start
                0x80003f68        0x4 LONG 0x0
                0x80003f6c        0x4 LONG 0x0
                0x80003f70        0x4 LONG 0x0
                0x80003f74        0x4 LONG 0x0
                0x80003f78        0x4 LONG 0x0
                0x80003f7c        0x4 LONG 0x0
                0x80003f80        0x4 LONG 0x0
                0x80003f84        0x4 LONG 0x0
                0x80003f88        0x4 LONG 0x0
                0x80003f8c        0x4 LONG 0x0
                0x80003f90        0x4 LONG 0x32ca0 text_mem_size
                0x80003f94        0x4 LONG 0x0
                0x80003f98        0x4 LONG 0x0
                0x80003f9c        0x4 LONG 0x0
                0x80003fa0        0x4 LONG 0x0
                0x80003fa4        0x4 LONG 0x0
                0x80003fa8        0x4 LONG 0x0
                0x80003fac        0x4 LONG 0x5ba0 data_mem_size
                0x80003fb0        0x4 LONG 0x0
                0x80003fb4        0x4 LONG 0x0
                0x80003fb8        0x4 LONG 0x0
                0x80003fbc        0x4 LONG 0x0
                0x80003fc0        0x4 LONG 0x0
                0x80003fc4        0x4 LONG 0x0
                0x80003fc8        0x4 LONG 0x0
                0x80003fcc        0x4 LONG 0x0
                0x80003fd0        0x4 LONG 0x0
                0x80003fd4        0x4 LONG 0x0
                0x80003fd8        0x4 LONG 0x8003c840 bss_mem_start
                0x80003fdc        0x4 LONG 0x71720 bss_mem_size
                0x80003fe0        0x4 LONG 0x80004000 ABSOLUTE (_start)
                0x80004000                . = (file_start + 0x100)
                0x80004000                text_mem_start = .

.init           0x80004000      0x208
 *crt0.o(*.init)
 .init          0x80004000      0x1e4 /opt/devkitpro/libogc/lib/wii/libogc.a(ogc_crt0.o)
                0x8000419c                _memset
                0x80004000                _start
                0x800041cc                video_line
 *(.init)
 .init          0x800041e4        0xc /opt/devkitpro/devkitPPC/lib/gcc/powerpc-gekko/4.2.3/ecrti.o
                0x800041e4                __init
 .init          0x800041f0        0x4 /opt/devkitpro/devkitPPC/lib/gcc/powerpc-gekko/4.2.3/crtbegin.o
 .init          0x800041f4        0x4 /opt/devkitpro/devkitPPC/lib/gcc/powerpc-gekko/4.2.3/crtend.o
 .init          0x800041f8       0x10 /opt/devkitpro/devkitPPC/lib/gcc/powerpc-gekko/4.2.3/ecrtn.o

.plt
 *(.plt)

.interp
 *(.interp)

.hash
 *(.hash)

.dynsym
 *(.dynsym)

.dynstr
 *(.dynstr)

.gnu.version
 *(.gnu.version)

.gnu.version_d
 *(.gnu.version_d)

.gnu.version_r
 *(.gnu.version_r)

.rel.init
 *(.rel.init)

.rela.init      0x80004208        0x0
 *(.rela.init)
 .rela.init     0x00000000        0x0 /opt/devkitpro/devkitPPC/lib/gcc/powerpc-gekko/4.2.3/crtbegin.o

.rel.text
 *(.rel.text .rel.text.* .rel.gnu.linkonce.t.*)

.rela.text      0x80004208        0x0
 *(.rela.text .rela.text.* .rela.gnu.linkonce.t.*)
 .rela.text     0x00000000        0x0 /opt/devkitpro/devkitPPC/lib/gcc/powerpc-gekko/4.2.3/crtbegin.o
 .rela.text.GRRLIB_Start
                0x00000000        0x0 /opt/devkitpro/devkitPPC/lib/gcc/powerpc-gekko/4.2.3/crtbegin.o
 .rela.text.GRRLIB_InitVideo
                0x00000000        0x0 /opt/devkitpro/devkitPPC/lib/gcc/powerpc-gekko/4.2.3/crtbegin.o
 .rela.text.GRRLIB_DrawChar
                0x00000000        0x0 /opt/devkitpro/devkitPPC/lib/gcc/powerpc-gekko/4.2.3/crtbegin.o
 .rela.text.GRRLIB_DrawTile
                0x00000000        0x0 /opt/devkitpro/devkitPPC/lib/gcc/powerpc-gekko/4.2.3/crtbegin.o
 .rela.text.GRRLIB_DrawImg
                0x00000000        0x0 /opt/devkitpro/devkitPPC/lib/gcc/powerpc-gekko/4.2.3/crtbegin.o
 .rela.text.main
                0x00000000        0x0 /opt/devkitpro/devkitPPC/lib/gcc/powerpc-gekko/4.2.3/crtbegin.o
 .rela.text.wiiuse_init_cmd_queue
                0x00000000        0x0 /opt/devkitpro/devkitPPC/lib/gcc/powerpc-gekko/4.2.3/crtbegin.o
 .rela.text.wiiuse_init
                0x00000000        0x0 /opt/devkitpro/devkitPPC/lib/gcc/powerpc-gekko/4.2.3/crtbegin.o
 .rela.text.guitar_hero_3_handshake
                0x00000000        0x0 /opt/devkitpro/devkitPPC/lib/gcc/powerpc-gekko/4.2.3/crtbegin.o
 .rela.text.wiiuse_handshake
                0x00000000        0x0 /opt/devkitpro/devkitPPC/lib/gcc/powerpc-gekko/4.2.3/crtbegin.o
 .rela.text.wiiuse_handshake_expansion
                0x00000000        0x0 /opt/devkitpro/devkitPPC/lib/gcc/powerpc-gekko/4.2.3/crtbegin.o
 .rela.text.wiiuse_handshake_expansion_enabled
                0x00000000        0x0 /opt/devkitpro/devkitPPC/lib/gcc/powerpc-gekko/4.2.3/crtbegin.o
 .rela.text.bt_alarmhandler
                0x00000000        0x0 /opt/devkitpro/devkitPPC/lib/gcc/powerpc-gekko/4.2.3/crtbegin.o
 .rela.text.__lwp_rotate_readyqueue
                0x00000000        0x0 /opt/devkitpro/devkitPPC/lib/gcc/powerpc-gekko/4.2.3/crtbegin.o
 .rela.text.__lwp_thread_setstate
                0x00000000        0x0 /opt/devkitpro/devkitPPC/lib/gcc/powerpc-gekko/4.2.3/crtbegin.o
 .rela.text.__lwp_thread_setpriority
                0x00000000        0x0 /opt/devkitpro/devkitPPC/lib/gcc/powerpc-gekko/4.2.3/crtbegin.o
 .rela.text.__lwp_thread_ready
                0x00000000        0x0 /opt/devkitpro/devkitPPC/lib/gcc/powerpc-gekko/4.2.3/crtbegin.o
 .rela.text.__lwp_thread_close
                0x00000000        0x0 /opt/devkitpro/devkitPPC/lib/gcc/powerpc-gekko/4.2.3/crtbegin.o
 .rela.text.__lwp_thread_stopmultitasking
                0x00000000        0x0 /opt/devkitpro/devkitPPC/lib/gcc/powerpc-gekko/4.2.3/crtbegin.o
 .rela.text.__lwp_thread_startmultitasking
                0x00000000        0x0 /opt/devkitpro/devkitPPC/lib/gcc/powerpc-gekko/4.2.3/crtbegin.o
 .rela.text.__lwp_thread_closeall
                0x00000000        0x0 /opt/devkitpro/devkitPPC/lib/gcc/powerpc-gekko/4.2.3/crtbegin.o
 .rela.text.__lwp_thread_changepriority
                0x00000000        0x0 /opt/devkitpro/devkitPPC/lib/gcc/powerpc-gekko/4.2.3/crtbegin.o
 .rela.text.__lwp_thread_coreinit
                0x00000000        0x0 /opt/devkitpro/devkitPPC/lib/gcc/powerpc-gekko/4.2.3/crtbegin.o
 .rela.text.__lwp_thread_suspend
                0x00000000        0x0 /opt/devkitpro/devkitPPC/lib/gcc/powerpc-gekko/4.2.3/crtbegin.o
 .rela.text.__lwp_thread_context
                0x00000000        0x0 /opt/devkitpro/devkitPPC/lib/gcc/powerpc-gekko/4.2.3/crtbegin.o
 .rela.text.__lwp_thread_exists
                0x00000000        0x0 /opt/devkitpro/devkitPPC/lib/gcc/powerpc-gekko/4.2.3/crtbegin.o
 .rela.text.__lwp_thread_isalive
                0x00000000        0x0 /opt/devkitpro/devkitPPC/lib/gcc/powerpc-gekko/4.2.3/crtbegin.o
 .rela.text.__lwp_sysinit
                0x00000000        0x0 /opt/devkitpro/devkitPPC/lib/gcc/powerpc-gekko/4.2.3/crtbegin.o
 .rela.text.LWP_ThreadSignal
                0x00000000        0x0 /opt/devkitpro/devkitPPC/lib/gcc/powerpc-gekko/4.2.3/crtbegin.o
 .rela.text.LWP_ThreadBroadcast
                0x00000000        0x0 /opt/devkitpro/devkitPPC/lib/gcc/powerpc-gekko/4.2.3/crtbegin.o
 .rela.text.LWP_ThreadSleep
                0x00000000        0x0 /opt/devkitpro/devkitPPC/lib/gcc/powerpc-gekko/4.2.3/crtbegin.o
 .rela.text.LWP_CloseQueue
                0x00000000        0x0 /opt/devkitpro/devkitPPC/lib/gcc/powerpc-gekko/4.2.3/crtbegin.o
 .rela.text.LWP_InitQueue
                0x00000000        0x0 /opt/devkitpro/devkitPPC/lib/gcc/powerpc-gekko/4.2.3/crtbegin.o
 .rela.text.LWP_JoinThread
                0x00000000        0x0 /opt/devkitpro/devkitPPC/lib/gcc/powerpc-gekko/4.2.3/crtbegin.o
 .rela.text.LWP_ThreadIsSuspended
                0x00000000        0x0 /opt/devkitpro/devkitPPC/lib/gcc/powerpc-gekko/4.2.3/crtbegin.o
 .rela.text.LWP_SetThreadPriority
                0x00000000        0x0 /opt/devkitpro/devkitPPC/lib/gcc/powerpc-gekko/4.2.3/crtbegin.o
 .rela.text.LWP_ResumeThread
                0x00000000        0x0 /opt/devkitpro/devkitPPC/lib/gcc/powerpc-gekko/4.2.3/crtbegin.o
 .rela.text.LWP_SuspendThread
                0x00000000        0x0 /opt/devkitpro/devkitPPC/lib/gcc/powerpc-gekko/4.2.3/crtbegin.o
 .rela.text.LWP_CreateThread
                0x00000000        0x0 /opt/devkitpro/devkitPPC/lib/gcc/powerpc-gekko/4.2.3/crtbegin.o
 .rela.text.__lwp_stack_free
                0x00000000        0x0 /opt/devkitpro/devkitPPC/lib/gcc/powerpc-gekko/4.2.3/crtbegin.o
 .rela.text.__lwp_stack_allocate
                0x00000000        0x0 /opt/devkitpro/devkitPPC/lib/gcc/powerpc-gekko/4.2.3/crtbegin.o
 .rela.text.__lwp_watchdog_init
                0x00000000        0x0 /opt/devkitpro/devkitPPC/lib/gcc/powerpc-gekko/4.2.3/crtbegin.o
 .rela.text.__lwp_wd_tickle
                0x00000000        0x0 /opt/devkitpro/devkitPPC/lib/gcc/powerpc-gekko/4.2.3/crtbegin.o
 .rela.text.__lwp_wkspace_init
                0x00000000        0x0 /opt/devkitpro/devkitPPC/lib/gcc/powerpc-gekko/4.2.3/crtbegin.o
 .rela.text.__lwp_wkspace_heapused
                0x00000000        0x0 /opt/devkitpro/devkitPPC/lib/gcc/powerpc-gekko/4.2.3/crtbegin.o
 .rela.text.__lwp_wkspace_heapfree
                0x00000000        0x0 /opt/devkitpro/devkitPPC/lib/gcc/powerpc-gekko/4.2.3/crtbegin.o
 .rela.text.__lwp_objmgr_initinfo
                0x00000000        0x0 /opt/devkitpro/devkitPPC/lib/gcc/powerpc-gekko/4.2.3/crtbegin.o
 .rela.text.__irq_init
                0x00000000        0x0 /opt/devkitpro/devkitPPC/lib/gcc/powerpc-gekko/4.2.3/crtbegin.o
 .rela.text.__sram_sync
                0x00000000        0x0 /opt/devkitpro/devkitPPC/lib/gcc/powerpc-gekko/4.2.3/crtbegin.o
 .rela.text.__locksram
                0x00000000        0x0 /opt/devkitpro/devkitPPC/lib/gcc/powerpc-gekko/4.2.3/crtbegin.o
 .rela.text.__sys_alarmhandler
                0x00000000        0x0 /opt/devkitpro/devkitPPC/lib/gcc/powerpc-gekko/4.2.3/crtbegin.o
 .rela.text.__sram_init
                0x00000000        0x0 /opt/devkitpro/devkitPPC/lib/gcc/powerpc-gekko/4.2.3/crtbegin.o
 .rela.text.SYS_Init
                0x00000000        0x0 /opt/devkitpro/devkitPPC/lib/gcc/powerpc-gekko/4.2.3/crtbegin.o
 .rela.text.__unlocksram
                0x00000000        0x0 /opt/devkitpro/devkitPPC/lib/gcc/powerpc-gekko/4.2.3/crtbegin.o
 .rela.text.__sram_writecallback
                0x00000000        0x0 /opt/devkitpro/devkitPPC/lib/gcc/powerpc-gekko/4.2.3/crtbegin.o
 .rela.text.SYS_CancelAlarm
                0x00000000        0x0 /opt/devkitpro/devkitPPC/lib/gcc/powerpc-gekko/4.2.3/crtbegin.o
 .rela.text.SYS_RemoveAlarm
                0x00000000        0x0 /opt/devkitpro/devkitPPC/lib/gcc/powerpc-gekko/4.2.3/crtbegin.o
 .rela.text.SYS_SetPeriodicAlarm
                0x00000000        0x0 /opt/devkitpro/devkitPPC/lib/gcc/powerpc-gekko/4.2.3/crtbegin.o
 .rela.text.SYS_SetAlarm
                0x00000000        0x0 /opt/devkitpro/devkitPPC/lib/gcc/powerpc-gekko/4.2.3/crtbegin.o
 .rela.text.__lwp_cond_init
                0x00000000        0x0 /opt/devkitpro/devkitPPC/lib/gcc/powerpc-gekko/4.2.3/crtbegin.o
 .rela.text.LWP_CondDestroy
                0x00000000        0x0 /opt/devkitpro/devkitPPC/lib/gcc/powerpc-gekko/4.2.3/crtbegin.o
 .rela.text.LWP_CondInit
                0x00000000        0x0 /opt/devkitpro/devkitPPC/lib/gcc/powerpc-gekko/4.2.3/crtbegin.o
 .rela.text.__lwp_cond_signalsupp
                0x00000000        0x0 /opt/devkitpro/devkitPPC/lib/gcc/powerpc-gekko/4.2.3/crtbegin.o
 .rela.text.__lwp_cond_waitsupp
                0x00000000        0x0 /opt/devkitpro/devkitPPC/lib/gcc/powerpc-gekko/4.2.3/crtbegin.o
 .rela.text.GX_EndDispList
                0x00000000        0x0 /opt/devkitpro/devkitPPC/lib/gcc/powerpc-gekko/4.2.3/crtbegin.o
 .rela.text.GX_BeginDispList
                0x00000000        0x0 /opt/devkitpro/devkitPPC/lib/gcc/powerpc-gekko/4.2.3/crtbegin.o
 .rela.text.c_decrementer_handler
                0x00000000        0x0 /opt/devkitpro/devkitPPC/lib/gcc/powerpc-gekko/4.2.3/crtbegin.o
 .rela.text.__lwp_mqbox_init
                0x00000000        0x0 /opt/devkitpro/devkitPPC/lib/gcc/powerpc-gekko/4.2.3/crtbegin.o
 .rela.text.MQ_Close
                0x00000000        0x0 /opt/devkitpro/devkitPPC/lib/gcc/powerpc-gekko/4.2.3/crtbegin.o
 .rela.text.MQ_Init
                0x00000000        0x0 /opt/devkitpro/devkitPPC/lib/gcc/powerpc-gekko/4.2.3/crtbegin.o
 .rela.text.MQ_Jam
                0x00000000        0x0 /opt/devkitpro/devkitPPC/lib/gcc/powerpc-gekko/4.2.3/crtbegin.o
 .rela.text.MQ_Receive
                0x00000000        0x0 /opt/devkitpro/devkitPPC/lib/gcc/powerpc-gekko/4.2.3/crtbegin.o
 .rela.text.MQ_Send
                0x00000000        0x0 /opt/devkitpro/devkitPPC/lib/gcc/powerpc-gekko/4.2.3/crtbegin.o
 .rela.text.__ios_ioctlvformat_parse
                0x00000000        0x0 /opt/devkitpro/devkitPPC/lib/gcc/powerpc-gekko/4.2.3/crtbegin.o
 .rela.text.__ioctlvfmtCB
                0x00000000        0x0 /opt/devkitpro/devkitPPC/lib/gcc/powerpc-gekko/4.2.3/crtbegin.o
 .rela.text.IOS_IoctlvFormatAsync
                0x00000000        0x0 /opt/devkitpro/devkitPPC/lib/gcc/powerpc-gekko/4.2.3/crtbegin.o
 .rela.text.IOS_IoctlvFormat
                0x00000000        0x0 /opt/devkitpro/devkitPPC/lib/gcc/powerpc-gekko/4.2.3/crtbegin.o
 .rela.text.nanosleep
                0x00000000        0x0 /opt/devkitpro/devkitPPC/lib/gcc/powerpc-gekko/4.2.3/crtbegin.o
 .rela.text.__libc_init
                0x00000000        0x0 /opt/devkitpro/devkitPPC/lib/gcc/powerpc-gekko/4.2.3/crtbegin.o
 .rela.text.__libc_wrapup
                0x00000000        0x0 /opt/devkitpro/devkitPPC/lib/gcc/powerpc-gekko/4.2.3/crtbegin.o
 .rela.text.__libc_delete_hook
                0x00000000        0x0 /opt/devkitpro/devkitPPC/lib/gcc/powerpc-gekko/4.2.3/crtbegin.o
 .rela.text.__CheckARGV
                0x00000000        0x0 /opt/devkitpro/devkitPPC/lib/gcc/powerpc-gekko/4.2.3/crtbegin.o
 .rela.text.__lwp_priority_init
                0x00000000        0x0 /opt/devkitpro/devkitPPC/lib/gcc/powerpc-gekko/4.2.3/crtbegin.o
 .rela.text.__lwp_threadqueue_extractpriority
                0x00000000        0x0 /opt/devkitpro/devkitPPC/lib/gcc/powerpc-gekko/4.2.3/crtbegin.o
 .rela.text.__lwp_threadqueue_extractfifo
                0x00000000        0x0 /opt/devkitpro/devkitPPC/lib/gcc/powerpc-gekko/4.2.3/crtbegin.o
 .rela.text.__lwp_threadqueue_dequeuepriority
                0x00000000        0x0 /opt/devkitpro/devkitPPC/lib/gcc/powerpc-gekko/4.2.3/crtbegin.o
 .rela.text.__lwp_threadqueue_enqueuepriority
                0x00000000        0x0 /opt/devkitpro/devkitPPC/lib/gcc/powerpc-gekko/4.2.3/crtbegin.o
 .rela.text.__lwp_threadqueue_dequeuefifo
                0x00000000        0x0 /opt/devkitpro/devkitPPC/lib/gcc/powerpc-gekko/4.2.3/crtbegin.o
 .rela.text.__lwp_threadqueue_enqueuefifo
                0x00000000        0x0 /opt/devkitpro/devkitPPC/lib/gcc/powerpc-gekko/4.2.3/crtbegin.o
 .rela.text.__lwp_threadqueue_enqueue
                0x00000000        0x0 /opt/devkitpro/devkitPPC/lib/gcc/powerpc-gekko/4.2.3/crtbegin.o
 .rela.text.__lwpmq_close
                0x00000000        0x0 /opt/devkitpro/devkitPPC/lib/gcc/powerpc-gekko/4.2.3/crtbegin.o
 .rela.text.__lwpmq_initialize
                0x00000000        0x0 /opt/devkitpro/devkitPPC/lib/gcc/powerpc-gekko/4.2.3/crtbegin.o
 .rela.text.__exception_sethandler
                0x00000000        0x0 /opt/devkitpro/devkitPPC/lib/gcc/powerpc-gekko/4.2.3/crtbegin.o
 .rela.text.__exception_init
                0x00000000        0x0 /opt/devkitpro/devkitPPC/lib/gcc/powerpc-gekko/4.2.3/crtbegin.o
 .rela.text.__systemcall_init
                0x00000000        0x0 /opt/devkitpro/devkitPPC/lib/gcc/powerpc-gekko/4.2.3/crtbegin.o
 .rela.text.__lwp_sema_init
                0x00000000        0x0 /opt/devkitpro/devkitPPC/lib/gcc/powerpc-gekko/4.2.3/crtbegin.o
 .rela.text.LWP_SemInit
                0x00000000        0x0 /opt/devkitpro/devkitPPC/lib/gcc/powerpc-gekko/4.2.3/crtbegin.o
 .rela.text.LWP_SemDestroy
                0x00000000        0x0 /opt/devkitpro/devkitPPC/lib/gcc/powerpc-gekko/4.2.3/crtbegin.o
 .rela.text.LWP_SemPost
                0x00000000        0x0 /opt/devkitpro/devkitPPC/lib/gcc/powerpc-gekko/4.2.3/crtbegin.o
 .rela.text.LWP_SemWait
                0x00000000        0x0 /opt/devkitpro/devkitPPC/lib/gcc/powerpc-gekko/4.2.3/crtbegin.o
 .rela.text.__lwp_mutex_init
                0x00000000        0x0 /opt/devkitpro/devkitPPC/lib/gcc/powerpc-gekko/4.2.3/crtbegin.o
 .rela.text.LWP_MutexDestroy
                0x00000000        0x0 /opt/devkitpro/devkitPPC/lib/gcc/powerpc-gekko/4.2.3/crtbegin.o
 .rela.text.LWP_MutexUnlock
                0x00000000        0x0 /opt/devkitpro/devkitPPC/lib/gcc/powerpc-gekko/4.2.3/crtbegin.o
 .rela.text.__lwp_mutex_locksupp
                0x00000000        0x0 /opt/devkitpro/devkitPPC/lib/gcc/powerpc-gekko/4.2.3/crtbegin.o
 .rela.text.LWP_MutexInit
                0x00000000        0x0 /opt/devkitpro/devkitPPC/lib/gcc/powerpc-gekko/4.2.3/crtbegin.o
 .rela.text.kprintf
                0x00000000        0x0 /opt/devkitpro/devkitPPC/lib/gcc/powerpc-gekko/4.2.3/crtbegin.o
 .rela.text.__console_init_ex
                0x00000000        0x0 /opt/devkitpro/devkitPPC/lib/gcc/powerpc-gekko/4.2.3/crtbegin.o
 .rela.text.__console_init
                0x00000000        0x0 /opt/devkitpro/devkitPPC/lib/gcc/powerpc-gekko/4.2.3/crtbegin.o

.rel.fini
 *(.rel.fini)

.rela.fini
 *(.rela.fini)

.rel.rodata
 *(.rel.rodata .rel.rodata.* .rel.gnu.linkonce.r.*)

.rela.rodata
 *(.rela.rodata .rela.rodata.* .rela.gnu.linkonce.r.*)

.rel.data
 *(.rel.data .rel.data.* .rel.gnu.linkonce.d.*)

.rela.data
 *(.rela.data .rela.data.* .rela.gnu.linkonce.d.*)

.rel.tdata
 *(.rel.tdata .rel.tdata.* .rel.gnu.linkonce.td.*)

.rela.tdata
 *(.rela.tdata .rela.tdata.* .rela.gnu.linkonce.td.*)

.rel.tbss
 *(.rel.tbss .rel.tbss.* .rel.gnu.linkonce.tb.*)

.rela.tbss
 *(.rela.tbss .rela.tbss.* .rela.gnu.linkonce.tb.*)

.rel.ctors
 *(.rel.ctors)

.rela.ctors
 *(.rela.ctors)

.rel.dtors
 *(.rel.dtors)

.rela.dtors
 *(.rela.dtors)

.rel.got
 *(.rel.got)

.rela.got
 *(.rela.got)

.rela.got1
 *(.rela.got1)

.rela.got2      0x80004208        0x0
 *(.rela.got2)
 .rela.got2     0x00000000        0x0 /opt/devkitpro/devkitPPC/lib/gcc/powerpc-gekko/4.2.3/crtbegin.o

.rel.sdata
 *(.rel.sdata .rel.sdata.* .rel.gnu.linkonce.s.*)

.rela.sdata
 *(.rela.sdata .rela.sdata.* .rela.gnu.linkonce.s.*)

.rel.sbss
 *(.rel.sbss .rel.sbss.* .rel.gnu.linkonce.sb.*)

.rela.sbss
 *(.rela.sbss .rela.sbss.* .rel.gnu.linkonce.sb.*)

.rel.sdata2
 *(.rel.sdata2 .rel.sdata2.* .rel.gnu.linkonce.s2.*)

.rela.sdata2    0x80004208        0x0
 *(.rela.sdata2 .rela.sdata2.* .rela.gnu.linkonce.s2.*)
 .rela.sdata2.__sys_inIPL
                0x00000000        0x0 /opt/devkitpro/devkitPPC/lib/gcc/powerpc-gekko/4.2.3/crtbegin.o
 .rela.sdata2._gx
                0x00000000        0x0 /opt/devkitpro/devkitPPC/lib/gcc/powerpc-gekko/4.2.3/crtbegin.o

.rel.sbss2
 *(.rel.sbss2 .rel.sbss2.* .rel.gnu.linkonce.sb2.*)

.rela.sbss2
 *(.rela.sbss2 .rela.sbss2.* .rela.gnu.linkonce.sb2.*)

.rel.bss
 *(.rel.bss .rel.bss.* .rel.gnu.linkonce.b.*)

.rela.bss
 *(.rela.bss .rela.bss.* .rela.gnu.linkonce.b.*)

.rel.plt
 *(.rel.plt)

.rela.plt
 *(.rela.plt)

.text           0x80004220    0x32a60
 *(.text)
 .text          0x80004220      0x140 /opt/devkitpro/devkitPPC/lib/gcc/powerpc-gekko/4.2.3/crtbegin.o
 .text          0x80004360       0x48 /opt/devkitpro/devkitPPC/lib/gcc/powerpc-gekko/4.2.3/../../../../powerpc-gekko/lib/crtmain.o
                0x80004364                __crtmain
 *fill*         0x800043a8       0x18 00000000
 .text          0x800043c0      0x4e8 /opt/devkitpro/libogc/lib/wii/libogc.a(lwp_handler.o)
                0x80004500                _cpu_context_restore_fp
                0x800047c0                _cpu_context_save
                0x800043c0                _cpu_context_save_fp
                0x80004640                _cpu_context_switch
                0x80004840                _cpu_context_restore
 .text          0x800048a8      0x5c4 /opt/devkitpro/libogc/lib/wii/libogc.a(system_asm.o)
                0x80004940                __configMEM1_48Mb
                0x80004dcc                __reset
                0x800048a8                __realmode
                0x80004cb0                __CacheInit
                0x80004aa0                __configMEM2_64Mb
                0x80004d14                __SystemInit
                0x80004bfc                __configMEM2_128Mb
                0x800048c0                __configMEM1_24Mb
                0x80004c78                __PSInit
                0x800049c0                __configMEM2_56Mb
                0x80004b1c                __configMEM2_112Mb
                0x80004d98                __flush_cache
                0x80004e3c                SYS_SwitchFiber
 .text          0x80004e6c      0x92c /opt/devkitpro/libogc/lib/wii/libogc.a(gu_psasm.o)
                0x80004e6c                ps_guMtxConcat
                0x8000573c                ps_guQuatNormalize
                0x80005430                ps_guMtxReflect
                0x8000550c                ps_guVecNormalize
                0x80005594                ps_guVecDotProduct
                0x8000535c                __ps_guMtxRotAxisRadInternal
                0x800050f0                ps_guMtxInvXpos
                0x800055b4                ps_guVecMultiply
                0x8000571c                ps_guQuatDotProduct
                0x80005558                ps_guVecCross
                0x80005680                ps_guQuatSub
                0x8000565c                ps_guQuatAdd
                0x80005608                ps_guVecMultiplySR
                0x80004f38                ps_guMtxIdentity
                0x800052ac                ps_guMtxRotTrig
                0x800054a8                ps_guVecAdd
                0x800054f0                ps_guVecScale
                0x800051b8                ps_guMtxScale
                0x80004f6c                ps_guMtxCopy
                0x800051e8                ps_guMtxScaleApply
                0x800056a4                ps_guQuatMultiply
                0x80004fa0                ps_guMtxTranspose
                0x80004ff8                ps_guMtxInverse
                0x80005234                ps_guMtxTrans
                0x8000526c                ps_guMtxTransApply
                0x800054cc                ps_guVecSub
 .text          0x80005798      0x1b0 /opt/devkitpro/libogc/lib/wii/libogc.a(irq_handler.o)
                0x80005798                irq_exceptionhandler
 .text          0x80005948      0x4d8 /opt/devkitpro/libogc/lib/wii/libogc.a(cache_asm.o)
                0x80005c24                L2Disable
                0x800059ac                DCBlockZero
                0x80005a64                DCFlushRangeNoSync
                0x80005bb8                ICBlockInvalidate
                0x80005948                DCFlashInvalidate
                0x800059b4                DCBlockStore
                0x80005ac4                DCZeroRange
                0x80005dd8                LCLoadBlocks
                0x800059a4                DCTouchLoad
                0x80005d98                LCAllocTags
                0x80005b80                ICDisable
                0x80005b6c                ICEnable
                0x80005c3c                L2GlobalInvalidate
                0x80005dfc                LCStoreBlocks
                0x80005b5c                ICFlashInvalidate
                0x80005af4                DCTouchRange
                0x80005a94                DCStoreRangeNoSync
                0x80005b94                ICFreeze
                0x8000596c                DCDisable
                0x800059bc                DCBlockFlush
                0x80005958                DCEnable
                0x80005c10                L2Enable
                0x80005c94                __LCEnable
                0x800059cc                DCInvalidateRange
                0x80005d84                LCAllocOneTag
                0x80005994                DCUnfreeze
                0x80005b24                ICInvalidateRange
                0x800059fc                DCFlushRange
                0x80005bc0                ICSync
                0x800059c4                DCBlockInvalidate
                0x80005980                DCFreeze
                0x80005bc8                L2Init
                0x80005ba8                ICUnfreeze
                0x80005a30                DCStoreRange
                0x80005d5c                LCDisable
 .text          0x80005e20      0x1b0 /opt/devkitpro/libogc/lib/wii/libogc.a(decrementer_handler.o)
                0x80005e20                dec_exceptionhandler
 .text          0x80005fd0      0x34c /opt/devkitpro/libogc/lib/wii/libogc.a(exception_handler.o)
                0x80005fd0                exceptionhandler_start
                0x80006084                default_exceptionhandler
                0x80006318                systemcallhandler_end
                0x800062fc                systemcallhandler_start
                0x80006080                exceptionhandler_end
                0x8000604c                exceptionhandler_patch
                0x800061c4                fpu_exceptionhandler
 .text          0x8000631c       0x34 /opt/devkitpro/devkitPPC/lib/gcc/powerpc-gekko/4.2.3/../../../../powerpc-gekko/lib/libm.a(lib_a-s_atan2.o)
                0x8000631c                atan2
 .text          0x80006350      0x284 /opt/devkitpro/devkitPPC/lib/gcc/powerpc-gekko/4.2.3/../../../../powerpc-gekko/lib/libm.a(lib_a-s_atangent.o)
                0x80006350                atangent
 .text          0x800065d4       0x24 /opt/devkitpro/devkitPPC/lib/gcc/powerpc-gekko/4.2.3/../../../../powerpc-gekko/lib/libm.a(lib_a-s_cos.o)
                0x800065d4                cos
 .text          0x800065f8       0xb4 /opt/devkitpro/devkitPPC/lib/gcc/powerpc-gekko/4.2.3/../../../../powerpc-gekko/lib/libm.a(lib_a-s_fabs.o)
                0x800065f8                fabs
 .text          0x800066ac       0xb4 /opt/devkitpro/devkitPPC/lib/gcc/powerpc-gekko/4.2.3/../../../../powerpc-gekko/lib/libm.a(lib_a-s_frexp.o)
                0x800066ac                frexp
 .text          0x80006760       0x50 /opt/devkitpro/devkitPPC/lib/gcc/powerpc-gekko/4.2.3/../../../../powerpc-gekko/lib/libm.a(lib_a-s_numtest.o)
                0x80006760                numtest
 .text          0x800067b0       0x24 /opt/devkitpro/devkitPPC/lib/gcc/powerpc-gekko/4.2.3/../../../../powerpc-gekko/lib/libm.a(lib_a-s_sin.o)
                0x800067b0                sin
 .text          0x800067d4      0x2c4 /opt/devkitpro/devkitPPC/lib/gcc/powerpc-gekko/4.2.3/../../../../powerpc-gekko/lib/libm.a(lib_a-s_sine.o)
                0x800067d4                sine
 .text          0x80006a98      0x184 /opt/devkitpro/devkitPPC/lib/gcc/powerpc-gekko/4.2.3/../../../../powerpc-gekko/lib/libm.a(lib_a-s_sqrt.o)
                0x80006a98                sqrt
 .text          0x80006c1c       0xc8 /opt/devkitpro/devkitPPC/lib/gcc/powerpc-gekko/4.2.3/../../../../powerpc-gekko/lib/libm.a(lib_a-sf_atan.o)
                0x80006c1c                atanf
 .text          0x80006ce4       0x38 /opt/devkitpro/devkitPPC/lib/gcc/powerpc-gekko/4.2.3/../../../../powerpc-gekko/lib/libm.a(lib_a-sf_atan2.o)
                0x80006ce4                atan2f
 .text          0x80006d1c      0x250 /opt/devkitpro/devkitPPC/lib/gcc/powerpc-gekko/4.2.3/../../../../powerpc-gekko/lib/libm.a(lib_a-sf_atangent.o)
                0x80006d1c                atangentf
 .text          0x80006f6c       0x24 /opt/devkitpro/devkitPPC/lib/gcc/powerpc-gekko/4.2.3/../../../../powerpc-gekko/lib/libm.a(lib_a-sf_cos.o)
                0x80006f6c                cosf
 .text          0x80006f90       0xb4 /opt/devkitpro/devkitPPC/lib/gcc/powerpc-gekko/4.2.3/../../../../powerpc-gekko/lib/libm.a(lib_a-sf_fabs.o)
                0x80006f90                fabsf
 .text          0x80007044       0x90 /opt/devkitpro/devkitPPC/lib/gcc/powerpc-gekko/4.2.3/../../../../powerpc-gekko/lib/libm.a(lib_a-sf_frexp.o)
                0x80007044                frexpf
 .text          0x800070d4       0x24 /opt/devkitpro/devkitPPC/lib/gcc/powerpc-gekko/4.2.3/../../../../powerpc-gekko/lib/libm.a(lib_a-sf_isinff.o)
                0x800070d4                __isinff
 .text          0x800070f8       0x28 /opt/devkitpro/devkitPPC/lib/gcc/powerpc-gekko/4.2.3/../../../../powerpc-gekko/lib/libm.a(lib_a-sf_isnanf.o)
                0x800070f8                __isnanf
 .text          0x80007120       0x48 /opt/devkitpro/devkitPPC/lib/gcc/powerpc-gekko/4.2.3/../../../../powerpc-gekko/lib/libm.a(lib_a-sf_numtest.o)
                0x80007120                numtestf
 .text          0x80007168       0x24 /opt/devkitpro/devkitPPC/lib/gcc/powerpc-gekko/4.2.3/../../../../powerpc-gekko/lib/libm.a(lib_a-sf_sin.o)
                0x80007168                sinf
 .text          0x8000718c      0x2b8 /opt/devkitpro/devkitPPC/lib/gcc/powerpc-gekko/4.2.3/../../../../powerpc-gekko/lib/libm.a(lib_a-sf_sine.o)
                0x8000718c                sinef
 .text          0x80007444      0x190 /opt/devkitpro/devkitPPC/lib/gcc/powerpc-gekko/4.2.3/../../../../powerpc-gekko/lib/libm.a(lib_a-sf_sqrt.o)
                0x80007444                sqrtf
 .text          0x800075d4       0x1c /opt/devkitpro/devkitPPC/lib/gcc/powerpc-gekko/4.2.3/../../../../powerpc-gekko/lib/libm.a(lib_a-s_ispos.o)
                0x800075d4                ispos
 .text          0x800075f0      0x154 /opt/devkitpro/devkitPPC/lib/gcc/powerpc-gekko/4.2.3/../../../../powerpc-gekko/lib/libm.a(lib_a-s_ldexp.o)
                0x800075f0                ldexp
 .text          0x80007744       0x1c /opt/devkitpro/devkitPPC/lib/gcc/powerpc-gekko/4.2.3/../../../../powerpc-gekko/lib/libm.a(lib_a-sf_ispos.o)
                0x80007744                isposf
 .text          0x80007760      0x14c /opt/devkitpro/devkitPPC/lib/gcc/powerpc-gekko/4.2.3/../../../../powerpc-gekko/lib/libm.a(lib_a-sf_ldexp.o)
                0x80007760                ldexpf
 .text          0x800078ac      0x430 /opt/devkitpro/devkitPPC/lib/gcc/powerpc-gekko/4.2.3/libgcc.a(_udivdi3.o)
                0x800078ac                __udivdi3
 .text          0x80007cdc       0x28 /opt/devkitpro/devkitPPC/lib/gcc/powerpc-gekko/4.2.3/../../../../powerpc-gekko/lib/libsysbase.a(abort.o)
                0x80007cdc                abort
 .text          0x80007d04       0x28 /opt/devkitpro/devkitPPC/lib/gcc/powerpc-gekko/4.2.3/../../../../powerpc-gekko/lib/libsysbase.a(_exit.o)
                0x80007d04                _exit
 .text          0x80007d2c       0x9c /opt/devkitpro/devkitPPC/lib/gcc/powerpc-gekko/4.2.3/../../../../powerpc-gekko/lib/libsysbase.a(build_argv.o)
                0x80007d2c                build_argv
 .text          0x80007dc8      0x168 /opt/devkitpro/devkitPPC/lib/gcc/powerpc-gekko/4.2.3/../../../../powerpc-gekko/lib/libsysbase.a(syscall_support.o)
                0x80007efc                __malloc_unlock
                0x80007e48                __libc_lock_release
                0x80007dc8                __libc_lock_init
                0x80007ec8                __malloc_lock
                0x80007e08                __libc_lock_close
                0x80007e88                __libc_lock_acquire
 .text          0x80007f30       0x34 /opt/devkitpro/devkitPPC/lib/gcc/powerpc-gekko/4.2.3/../../../../powerpc-gekko/lib/libc.a(lib_a-calloc.o)
                0x80007f30                calloc
 .text          0x80007f64       0xd0 /opt/devkitpro/devkitPPC/lib/gcc/powerpc-gekko/4.2.3/../../../../powerpc-gekko/lib/libc.a(lib_a-callocr.o)
                0x80007f64                _calloc_r
 .text          0x80008034        0xc /opt/devkitpro/devkitPPC/lib/gcc/powerpc-gekko/4.2.3/../../../../powerpc-gekko/lib/libc.a(lib_a-errno.o)
                0x80008034                __errno
 .text          0x80008040       0x40 /opt/devkitpro/devkitPPC/lib/gcc/powerpc-gekko/4.2.3/../../../../powerpc-gekko/lib/libc.a(lib_a-exit.o)
                0x80008040                exit
 .text          0x80008080      0x110 /opt/devkitpro/devkitPPC/lib/gcc/powerpc-gekko/4.2.3/../../../../powerpc-gekko/lib/libc.a(lib_a-fprintf.o)
                0x80008080                fprintf
                0x80008114                _fprintf_r
 .text          0x80008190      0x17c /opt/devkitpro/devkitPPC/lib/gcc/powerpc-gekko/4.2.3/../../../../powerpc-gekko/lib/libc.a(lib_a-fwrite.o)
                0x80008190                _fwrite_r
                0x800082e4                fwrite
 .text          0x8000830c       0x34 /opt/devkitpro/devkitPPC/lib/gcc/powerpc-gekko/4.2.3/../../../../powerpc-gekko/lib/libc.a(lib_a-malign.o)
                0x8000830c                memalign
 .text          0x80008340      0x1b0 /opt/devkitpro/devkitPPC/lib/gcc/powerpc-gekko/4.2.3/../../../../powerpc-gekko/lib/libc.a(lib_a-malignr.o)
                0x80008340                _memalign_r
 .text          0x800084f0       0x58 /opt/devkitpro/devkitPPC/lib/gcc/powerpc-gekko/4.2.3/../../../../powerpc-gekko/lib/libc.a(lib_a-malloc.o)
                0x8000851c                malloc
                0x800084f0                free
 .text          0x80008548      0x86c /opt/devkitpro/devkitPPC/lib/gcc/powerpc-gekko/4.2.3/../../../../powerpc-gekko/lib/libc.a(lib_a-mallocr.o)
                0x80008548                _malloc_r
 .text          0x80008db4       0x8c /opt/devkitpro/devkitPPC/lib/gcc/powerpc-gekko/4.2.3/../../../../powerpc-gekko/lib/libc.a(lib_a-memcmp.o)
                0x80008db4                memcmp
 .text          0x80008e40       0xc8 /opt/devkitpro/devkitPPC/lib/gcc/powerpc-gekko/4.2.3/../../../../powerpc-gekko/lib/libc.a(lib_a-memcpy.o)
                0x80008e40                memcpy
 .text          0x80008f08      0x104 /opt/devkitpro/devkitPPC/lib/gcc/powerpc-gekko/4.2.3/../../../../powerpc-gekko/lib/libc.a(lib_a-memmove.o)
                0x80008f08                memmove
 .text          0x8000900c       0xac /opt/devkitpro/devkitPPC/lib/gcc/powerpc-gekko/4.2.3/../../../../powerpc-gekko/lib/libc.a(lib_a-memset.o)
                0x8000900c                memset
 .text          0x800090b8      0x124 /opt/devkitpro/devkitPPC/lib/gcc/powerpc-gekko/4.2.3/../../../../powerpc-gekko/lib/libc.a(lib_a-printf.o)
                0x800090b8                printf
                0x80009150                _printf_r
 .text          0x800091dc       0xa8 /opt/devkitpro/devkitPPC/lib/gcc/powerpc-gekko/4.2.3/../../../../powerpc-gekko/lib/libc.a(lib_a-puts.o)
                0x800091dc                _puts_r
                0x80009274                puts
 .text          0x80009284      0x248 /opt/devkitpro/devkitPPC/lib/gcc/powerpc-gekko/4.2.3/../../../../powerpc-gekko/lib/libc.a(lib_a-reent.o)
                0x80009344                cleanup_glue
                0x80009394                _reclaim_reent
                0x80009284                _wrapup_reent
 .text          0x800094cc      0x2cc /opt/devkitpro/devkitPPC/lib/gcc/powerpc-gekko/4.2.3/../../../../powerpc-gekko/lib/libc.a(lib_a-setvbuf.o)
                0x800094cc                setvbuf
 .text          0x80009798      0x230 /opt/devkitpro/devkitPPC/lib/gcc/powerpc-gekko/4.2.3/../../../../powerpc-gekko/lib/libc.a(lib_a-snprintf.o)
                0x80009798                snprintf
                0x800098b0                _snprintf_r
 .text          0x800099c8       0xf0 /opt/devkitpro/devkitPPC/lib/gcc/powerpc-gekko/4.2.3/../../../../powerpc-gekko/lib/libc.a(lib_a-strchr.o)
                0x800099c8                strchr
 .text          0x80009ab8       0xc0 /opt/devkitpro/devkitPPC/lib/gcc/powerpc-gekko/4.2.3/../../../../powerpc-gekko/lib/libc.a(lib_a-strcmp.o)
                0x80009ab8                strcmp
 .text          0x80009b78       0x64 /opt/devkitpro/devkitPPC/lib/gcc/powerpc-gekko/4.2.3/../../../../powerpc-gekko/lib/libc.a(lib_a-strlen.o)
                0x80009b78                strlen
 .text          0x80009bdc       0x44 /opt/devkitpro/devkitPPC/lib/gcc/powerpc-gekko/4.2.3/../../../../powerpc-gekko/lib/libc.a(lib_a-strnlen.o)
                0x80009bdc                strnlen
 .text          0x80009c20       0x3c /opt/devkitpro/devkitPPC/lib/gcc/powerpc-gekko/4.2.3/../../../../powerpc-gekko/lib/libc.a(lib_a-syswrite.o)
                0x80009c20                write
 .text          0x80009c5c     0x2344 /opt/devkitpro/devkitPPC/lib/gcc/powerpc-gekko/4.2.3/../../../../powerpc-gekko/lib/libc.a(lib_a-vfprintf.o)
                0x80009cbc                _vfprintf_r
                0x8000bf80                vfprintf
 .text          0x8000bfa0       0xa4 /opt/devkitpro/devkitPPC/lib/gcc/powerpc-gekko/4.2.3/../../../../powerpc-gekko/lib/libc.a(lib_a-wcrtomb.o)
                0x8000bfa0                _wcrtomb_r
                0x8000c024                wcrtomb
 .text          0x8000c044      0x1d8 /opt/devkitpro/devkitPPC/lib/gcc/powerpc-gekko/4.2.3/../../../../powerpc-gekko/lib/libc.a(lib_a-wcsrtombs.o)
                0x8000c044                _wcsrtombs_r
                0x8000c1f4                wcsrtombs
 .text          0x8000c21c      0x464 /opt/devkitpro/devkitPPC/lib/gcc/powerpc-gekko/4.2.3/../../../../powerpc-gekko/lib/libc.a(lib_a-wctomb_r.o)
                0x8000c21c                _wctomb_r
 .text          0x8000c680      0x178 /opt/devkitpro/devkitPPC/lib/gcc/powerpc-gekko/4.2.3/../../../../powerpc-gekko/lib/libc.a(lib_a-wsetup.o)
                0x8000c680                __swsetup_r
 .text          0x8000c7f8      0x1ac /opt/devkitpro/devkitPPC/lib/gcc/powerpc-gekko/4.2.3/../../../../powerpc-gekko/lib/libc.a(lib_a-__call_atexit.o)
                0x8000c7f8                __call_exitprocs
 .text          0x8000c9a4     0x1390 /opt/devkitpro/devkitPPC/lib/gcc/powerpc-gekko/4.2.3/../../../../powerpc-gekko/lib/libc.a(lib_a-dtoa.o)
                0x8000cbe0                _dtoa_r
 .text          0x8000dd34      0x310 /opt/devkitpro/devkitPPC/lib/gcc/powerpc-gekko/4.2.3/../../../../powerpc-gekko/lib/libc.a(lib_a-fflush.o)
                0x8000dff4                fflush
                0x8000dd34                _fflush_r
 .text          0x8000e044      0x4ac /opt/devkitpro/devkitPPC/lib/gcc/powerpc-gekko/4.2.3/../../../../powerpc-gekko/lib/libc.a(lib_a-findfp.o)
                0x8000e230                __sinit
                0x8000e350                __sfmoreglue
                0x8000e06c                _cleanup
                0x8000e044                _cleanup_r
                0x8000e31c                __fp_lock_all
                0x8000e2cc                __sfp_lock_acquire
                0x8000e3c8                __sfp
                0x8000e0d8                __sinit_lock_release
                0x8000e12c                __fp_unlock_all
                0x8000e100                __sfp_lock_release
                0x8000e1e4                __sinit_lock_acquire
 .text          0x8000e4f0      0x3f8 /opt/devkitpro/devkitPPC/lib/gcc/powerpc-gekko/4.2.3/../../../../powerpc-gekko/lib/libc.a(lib_a-freer.o)
                0x8000e60c                _free_r
                0x8000e4f0                _malloc_trim_r
 .text          0x8000e8e8      0x528 /opt/devkitpro/devkitPPC/lib/gcc/powerpc-gekko/4.2.3/../../../../powerpc-gekko/lib/libc.a(lib_a-fvwrite.o)
                0x8000e8e8                __sfvwrite_r
 .text          0x8000ee10      0x20c /opt/devkitpro/devkitPPC/lib/gcc/powerpc-gekko/4.2.3/../../../../powerpc-gekko/lib/libc.a(lib_a-fwalk.o)
                0x8000ef1c                _fwalk
                0x8000ee10                _fwalk_reent
 .text          0x8000f01c      0x4c4 /opt/devkitpro/devkitPPC/lib/gcc/powerpc-gekko/4.2.3/../../../../powerpc-gekko/lib/libc.a(lib_a-locale.o)
                0x8000f040                _setlocale_r
                0x8000f01c                __locale_charset
                0x8000f028                _localeconv_r
                0x8000f4c8                setlocale
                0x8000f034                localeconv
 .text          0x8000f4e0      0x1bc /opt/devkitpro/devkitPPC/lib/gcc/powerpc-gekko/4.2.3/../../../../powerpc-gekko/lib/libc.a(lib_a-makebuf.o)
                0x8000f4e0                __smakebuf_r
 .text          0x8000f69c      0x9a8 /opt/devkitpro/devkitPPC/lib/gcc/powerpc-gekko/4.2.3/../../../../powerpc-gekko/lib/libc.a(lib_a-mbtowc_r.o)
                0x8000f69c                _mbtowc_r
 .text          0x80010044      0x100 /opt/devkitpro/devkitPPC/lib/gcc/powerpc-gekko/4.2.3/../../../../powerpc-gekko/lib/libc.a(lib_a-memchr.o)
                0x80010044                memchr
 .text          0x80010144     0x1114 /opt/devkitpro/devkitPPC/lib/gcc/powerpc-gekko/4.2.3/../../../../powerpc-gekko/lib/libc.a(lib_a-mprec.o)
                0x800105ac                _mprec_log10
                0x80010650                __any_on
                0x800106f0                _Balloc
                0x800104e8                __ratio
                0x80010eb0                __i2b
                0x80010398                __b2d
                0x80011130                __s2b
                0x80010298                __mcmp
                0x80010168                __hi0bits
                0x80011004                __pow5mult
                0x80010b14                __lshift
                0x80010c7c                __multiply
                0x800107c0                __d2b
                0x800105e8                __copybits
                0x800102f8                __ulp
                0x80010968                __mdiff
                0x800101d4                __lo0bits
                0x80010eec                __multadd
                0x80010144                _Bfree
 .text          0x80011258      0x5b0 /opt/devkitpro/devkitPPC/lib/gcc/powerpc-gekko/4.2.3/../../../../powerpc-gekko/lib/libc.a(lib_a-reallocr.o)
                0x80011258                _realloc_r
 .text          0x80011808       0x44 /opt/devkitpro/devkitPPC/lib/gcc/powerpc-gekko/4.2.3/../../../../powerpc-gekko/lib/libc.a(lib_a-s_isinfd.o)
                0x80011808                __isinfd
 .text          0x8001184c       0x38 /opt/devkitpro/devkitPPC/lib/gcc/powerpc-gekko/4.2.3/../../../../powerpc-gekko/lib/libc.a(lib_a-s_isnand.o)
                0x8001184c                __isnand
 .text          0x80011884      0x178 /opt/devkitpro/devkitPPC/lib/gcc/powerpc-gekko/4.2.3/../../../../powerpc-gekko/lib/libc.a(lib_a-stdio.o)
                0x800118a8                __sseek
                0x80011998                __sread
                0x80011884                __sclose
                0x80011910                __swrite
 .text          0x800119fc       0x74 /opt/devkitpro/devkitPPC/lib/gcc/powerpc-gekko/4.2.3/../../../../powerpc-gekko/lib/libc.a(lib_a-strcpy.o)
                0x800119fc                strcpy
 .text          0x80011a70      0x188 /opt/devkitpro/devkitPPC/lib/gcc/powerpc-gekko/4.2.3/../../../../powerpc-gekko/lib/libc.a(lib_a-fclose.o)
                0x80011a70                _fclose_r
                0x80011be8                fclose
 .text          0x80011bf8       0xa0 /opt/devkitpro/devkitPPC/lib/gcc/powerpc-gekko/4.2.3/../../../../powerpc-gekko/lib/libsysbase.a(close.o)
                0x80011bf8                _close_r
 .text          0x80011c98       0xc8 /opt/devkitpro/devkitPPC/lib/gcc/powerpc-gekko/4.2.3/../../../../powerpc-gekko/lib/libsysbase.a(fstat.o)
                0x80011c98                _fstat_r
 .text          0x80011d60        0x8 /opt/devkitpro/devkitPPC/lib/gcc/powerpc-gekko/4.2.3/../../../../powerpc-gekko/lib/libsysbase.a(isatty.o)
                0x80011d60                isatty
 .text          0x80011d68       0xd0 /opt/devkitpro/devkitPPC/lib/gcc/powerpc-gekko/4.2.3/../../../../powerpc-gekko/lib/libsysbase.a(lseek.o)
                0x80011d68                _lseek_r
 .text          0x80011e38       0xcc /opt/devkitpro/devkitPPC/lib/gcc/powerpc-gekko/4.2.3/../../../../powerpc-gekko/lib/libsysbase.a(read.o)
                0x80011e38                _read_r
 .text          0x80011f04       0x50 /opt/devkitpro/devkitPPC/lib/gcc/powerpc-gekko/4.2.3/../../../../powerpc-gekko/lib/libsysbase.a(sbrk.o)
                0x80011f04                _sbrk_r
 .text          0x80011f54       0xcc /opt/devkitpro/devkitPPC/lib/gcc/powerpc-gekko/4.2.3/../../../../powerpc-gekko/lib/libsysbase.a(write.o)
                0x80011f54                _write_r
 .text          0x80012020       0x6c /opt/devkitpro/devkitPPC/lib/gcc/powerpc-gekko/4.2.3/../../../../powerpc-gekko/lib/libsysbase.a(flock.o)
                0x80012044                __flockfile
                0x80012020                __funlockfile
 .text          0x8001208c      0x120 /opt/devkitpro/devkitPPC/lib/gcc/powerpc-gekko/4.2.3/../../../../powerpc-gekko/lib/libsysbase.a(handle_manager.o)
                0x80012150                __release_handle
                0x800120b8                __alloc_handle
                0x8001208c                __get_handle
 .text          0x800121ac      0x450 /opt/devkitpro/devkitPPC/lib/gcc/powerpc-gekko/4.2.3/libgcc.a(_umoddi3.o)
                0x800121ac                __umoddi3
 .text          0x800125fc       0x6c /opt/devkitpro/devkitPPC/lib/gcc/powerpc-gekko/4.2.3/crtend.o
 *(.text.*)
 .text.GRRLIB_Splitu32
                0x80012668       0x1c GRRLIB.o
                0x80012668                GRRLIB_Splitu32
 .text.GRRLIB_Render
                0x80012684       0x8c GRRLIB.o
                0x80012684                GRRLIB_Render
 .text.GRRLIB_Start
                0x80012710      0x2fc GRRLIB.o
                0x80012710                GRRLIB_Start
 .text.GRRLIB_InitVideo
                0x80012a0c       0xb4 GRRLIB.o
                0x80012a0c                GRRLIB_InitVideo
 .text.GRRLIB_GXEngine
                0x80012ac0       0xc0 GRRLIB.o
                0x80012ac0                GRRLIB_GXEngine
 .text.GRRLIB_NGoneFilled
                0x80012b80        0x8 GRRLIB.o
                0x80012b80                GRRLIB_NGoneFilled
 .text.GRRLIB_NPlot
                0x80012b88        0x8 GRRLIB.o
                0x80012b88                GRRLIB_NPlot
 .text.GRRLIB_Plot
                0x80012b90       0x44 GRRLIB.o
                0x80012b90                GRRLIB_Plot
 .text.GRRLIB_FillScreen
                0x80012bd4       0xa0 GRRLIB.o
                0x80012bd4                GRRLIB_FillScreen
 .text.main     0x80012c74      0x184 main.o
                0x80012c74                main
 .text.WPAD_SetIdleTimeout
                0x80012df8       0x2c /opt/devkitpro/libogc/lib/wii/libwiiuse.a(wpad.o)
                0x80012df8                WPAD_SetIdleTimeout
 .text.WPAD_ButtonsDown
                0x80012e24       0x30 /opt/devkitpro/libogc/lib/wii/libwiiuse.a(wpad.o)
                0x80012e24                WPAD_ButtonsDown
 .text.WPAD_IR  0x80012e54       0x58 /opt/devkitpro/libogc/lib/wii/libwiiuse.a(wpad.o)
                0x80012e54                WPAD_IR
 .text.__wpad_disconnect
                0x80012eac       0x58 /opt/devkitpro/libogc/lib/wii/libwiiuse.a(wpad.o)
 .text.WPAD_Shutdown
                0x80012f04       0xe0 /opt/devkitpro/libogc/lib/wii/libwiiuse.a(wpad.o)
                0x80012f04                WPAD_Shutdown
 .text.__wpad_onreset
                0x80012fe4       0x2c /opt/devkitpro/libogc/lib/wii/libwiiuse.a(wpad.o)
 .text.__wpad_timeouthandler
                0x80013010       0xb8 /opt/devkitpro/libogc/lib/wii/libwiiuse.a(wpad.o)
 .text.WPAD_SetVRes
                0x800130c8       0xdc /opt/devkitpro/libogc/lib/wii/libwiiuse.a(wpad.o)
                0x800130c8                WPAD_SetVRes
 .text.__wpad_setfmt
                0x800131a4      0x110 /opt/devkitpro/libogc/lib/wii/libwiiuse.a(wpad.o)
 .text.WPAD_SetDataFormat
                0x800132b4       0xf4 /opt/devkitpro/libogc/lib/wii/libwiiuse.a(wpad.o)
                0x800132b4                WPAD_SetDataFormat
 .text.WPAD_ReadEvent
                0x800133a8      0x538 /opt/devkitpro/libogc/lib/wii/libwiiuse.a(wpad.o)
                0x800133a8                WPAD_ReadEvent
 .text.WPAD_ReadPending
                0x800138e0      0x174 /opt/devkitpro/libogc/lib/wii/libwiiuse.a(wpad.o)
                0x800138e0                WPAD_ReadPending
 .text.WPAD_ScanPads
                0x80013a54        0xc /opt/devkitpro/libogc/lib/wii/libwiiuse.a(wpad.o)
                0x80013a54                WPAD_ScanPads
 .text.WPAD_Init
                0x80013a60      0x1c0 /opt/devkitpro/libogc/lib/wii/libwiiuse.a(wpad.o)
                0x80013a60                WPAD_Init
 .text.__initcore_finished
                0x80013c20       0x40 /opt/devkitpro/libogc/lib/wii/libwiiuse.a(wpad.o)
 .text.__readlinkkey_finished
                0x80013c60       0x38 /opt/devkitpro/libogc/lib/wii/libwiiuse.a(wpad.o)
 .text.__wpad_patch_finished
                0x80013c98       0x2c /opt/devkitpro/libogc/lib/wii/libwiiuse.a(wpad.o)
 .text.__wpad_init_finished
                0x80013cc4      0x104 /opt/devkitpro/libogc/lib/wii/libwiiuse.a(wpad.o)
 .text.__wpad_eventCB
                0x80013dc8      0x8d0 /opt/devkitpro/libogc/lib/wii/libwiiuse.a(wpad.o)
 .text.calculate_gforce
                0x80014698       0xfc /opt/devkitpro/libogc/lib/wii/libwiiuse.a(dynamics.o)
                0x80014698                calculate_gforce
 .text.apply_smoothing
                0x80014794      0x184 /opt/devkitpro/libogc/lib/wii/libwiiuse.a(dynamics.o)
                0x80014794                apply_smoothing
 .text.calc_joystick_state
                0x80014918      0x274 /opt/devkitpro/libogc/lib/wii/libwiiuse.a(dynamics.o)
                0x80014918                calc_joystick_state
 .text.calculate_orientation
                0x80014b8c      0x298 /opt/devkitpro/libogc/lib/wii/libwiiuse.a(dynamics.o)
                0x80014b8c                calculate_orientation
 .text.wiiuse_io_write
                0x80014e24       0x44 /opt/devkitpro/libogc/lib/wii/libwiiuse.a(io_wii.o)
                0x80014e24                wiiuse_io_write
 .text.__wiiuse_disconnected
                0x80014e68       0x98 /opt/devkitpro/libogc/lib/wii/libwiiuse.a(io_wii.o)
 .text.__wiiuse_sent
                0x80014f00       0xb8 /opt/devkitpro/libogc/lib/wii/libwiiuse.a(io_wii.o)
 .text.wiiuse_init_cmd_queue
                0x80014fb8       0x4c /opt/devkitpro/libogc/lib/wii/libwiiuse.a(io_wii.o)
                0x80014fb8                wiiuse_init_cmd_queue
 .text.wiiuse_disconnect
                0x80015004       0x40 /opt/devkitpro/libogc/lib/wii/libwiiuse.a(io_wii.o)
                0x80015004                wiiuse_disconnect
 .text.wiiuse_register
                0x80015044       0xd0 /opt/devkitpro/libogc/lib/wii/libwiiuse.a(io_wii.o)
                0x80015044                wiiuse_register
 .text.__wiiuse_connected
                0x80015114       0x40 /opt/devkitpro/libogc/lib/wii/libwiiuse.a(io_wii.o)
 .text.__wiiuse_receive
                0x80015154       0xc0 /opt/devkitpro/libogc/lib/wii/libwiiuse.a(io_wii.o)
 .text.__wiiuse_sensorbar_enable
                0x80015214       0x50 /opt/devkitpro/libogc/lib/wii/libwiiuse.a(io_wii.o)
                0x80015214                __wiiuse_sensorbar_enable
 .text.get_ir_sens
                0x80015264       0xec /opt/devkitpro/libogc/lib/wii/libwiiuse.a(ir.o)
 .text.wiiuse_set_ir_vres
                0x80015350       0x1c /opt/devkitpro/libogc/lib/wii/libwiiuse.a(ir.o)
                0x80015350                wiiuse_set_ir_vres
 .text.wiiuse_set_ir_position
                0x8001536c       0x80 /opt/devkitpro/libogc/lib/wii/libwiiuse.a(ir.o)
                0x8001536c                wiiuse_set_ir_position
 .text.wiiuse_set_aspect_ratio
                0x800153ec       0x44 /opt/devkitpro/libogc/lib/wii/libwiiuse.a(ir.o)
                0x800153ec                wiiuse_set_aspect_ratio
 .text.calculate_basic_ir
                0x80015430       0xf4 /opt/devkitpro/libogc/lib/wii/libwiiuse.a(ir.o)
                0x80015430                calculate_basic_ir
 .text.calculate_extended_ir
                0x80015524       0x70 /opt/devkitpro/libogc/lib/wii/libwiiuse.a(ir.o)
                0x80015524                calculate_extended_ir
 .text.calc_yaw
                0x80015594       0x54 /opt/devkitpro/libogc/lib/wii/libwiiuse.a(ir.o)
                0x80015594                calc_yaw
 .text.apply_ir_smoothing
                0x800155e8       0xf4 /opt/devkitpro/libogc/lib/wii/libwiiuse.a(ir.o)
                0x800155e8                apply_ir_smoothing
 .text.rotate_dots
                0x800156dc      0x120 /opt/devkitpro/libogc/lib/wii/libwiiuse.a(ir.o)
 .text.find_sensorbar
                0x800157fc      0x968 /opt/devkitpro/libogc/lib/wii/libwiiuse.a(ir.o)
                0x800157fc                find_sensorbar
 .text.interpret_ir_data
                0x80016164      0x33c /opt/devkitpro/libogc/lib/wii/libwiiuse.a(ir.o)
                0x80016164                interpret_ir_data
 .text.wiiuse_set_ir_sensitivity
                0x800164a0      0x118 /opt/devkitpro/libogc/lib/wii/libwiiuse.a(ir.o)
                0x800164a0                wiiuse_set_ir_sensitivity
 .text.wiiuse_set_ir_mode
                0x800165b8       0x6c /opt/devkitpro/libogc/lib/wii/libwiiuse.a(ir.o)
                0x800165b8                wiiuse_set_ir_mode
 .text.wiiuse_set_ir
                0x80016624      0x21c /opt/devkitpro/libogc/lib/wii/libwiiuse.a(ir.o)
                0x80016624                wiiuse_set_ir
 .text.wiiuse_set_flags
                0x80016840       0x20 /opt/devkitpro/libogc/lib/wii/libwiiuse.a(wiiuse.o)
                0x80016840                wiiuse_set_flags
 .text.wiiuse_send_next_command
                0x80016860       0x6c /opt/devkitpro/libogc/lib/wii/libwiiuse.a(wiiuse.o)
                0x80016860                wiiuse_send_next_command
 .text.wiiuse_write_data
                0x800168cc      0x168 /opt/devkitpro/libogc/lib/wii/libwiiuse.a(wiiuse.o)
                0x800168cc                wiiuse_write_data
 .text.wiiuse_init
                0x80016a34      0x164 /opt/devkitpro/libogc/lib/wii/libwiiuse.a(wiiuse.o)
                0x80016a34                wiiuse_init
 .text.wiiuse_sendcmd
                0x80016b98       0xf8 /opt/devkitpro/libogc/lib/wii/libwiiuse.a(wiiuse.o)
                0x80016b98                wiiuse_sendcmd
 .text.wiiuse_status
                0x80016c90       0x5c /opt/devkitpro/libogc/lib/wii/libwiiuse.a(wiiuse.o)
                0x80016c90                wiiuse_status
 .text.wiiuse_motion_sensing
                0x80016cec       0x54 /opt/devkitpro/libogc/lib/wii/libwiiuse.a(wiiuse.o)
                0x80016cec                wiiuse_motion_sensing
 .text.wiiuse_set_report_type
                0x80016d40      0x100 /opt/devkitpro/libogc/lib/wii/libwiiuse.a(wiiuse.o)
                0x80016d40                wiiuse_set_report_type
 .text.wiiuse_set_leds
                0x80016e40       0x60 /opt/devkitpro/libogc/lib/wii/libwiiuse.a(wiiuse.o)
                0x80016e40                wiiuse_set_leds
 .text.wiiuse_read_data
                0x80016ea0      0x130 /opt/devkitpro/libogc/lib/wii/libwiiuse.a(wiiuse.o)
                0x80016ea0                wiiuse_read_data
 .text.wiiuse_pressed_buttons
                0x80016fd0       0x2c /opt/devkitpro/libogc/lib/wii/libwiiuse.a(events.o)
                0x80016fd0                wiiuse_pressed_buttons
 .text.handle_expansion
                0x80016ffc       0x80 /opt/devkitpro/libogc/lib/wii/libwiiuse.a(events.o)
 .text.parse_event
                0x8001707c      0x460 /opt/devkitpro/libogc/lib/wii/libwiiuse.a(events.o)
                0x8001707c                parse_event
 .text.guitar_hero_3_event
                0x800174dc       0x84 /opt/devkitpro/libogc/lib/wii/libwiiuse.a(guitar_hero_3.o)
                0x800174dc                guitar_hero_3_event
 .text.guitar_hero_3_disconnected
                0x80017560       0x28 /opt/devkitpro/libogc/lib/wii/libwiiuse.a(guitar_hero_3.o)
                0x80017560                guitar_hero_3_disconnected
 .text.guitar_hero_3_handshake
                0x80017588       0xd8 /opt/devkitpro/libogc/lib/wii/libwiiuse.a(guitar_hero_3.o)
                0x80017588                guitar_hero_3_handshake
 .text.wiiuse_disable_expansion
                0x80017660      0x10c /opt/devkitpro/libogc/lib/wii/libwiiuse.a(io.o)
                0x80017660                wiiuse_disable_expansion
 .text.wiiuse_handshake
                0x8001776c      0x104 /opt/devkitpro/libogc/lib/wii/libwiiuse.a(io.o)
                0x8001776c                wiiuse_handshake
 .text.wiiuse_handshake_expansion
                0x80017870      0x1b0 /opt/devkitpro/libogc/lib/wii/libwiiuse.a(io.o)
                0x80017870                wiiuse_handshake_expansion
 .text.wiiuse_handshake_expansion_enabled
                0x80017a20       0x64 /opt/devkitpro/libogc/lib/wii/libwiiuse.a(io.o)
                0x80017a20                wiiuse_handshake_expansion_enabled
 .text.nunchuk_event
                0x80017a84       0x8c /opt/devkitpro/libogc/lib/wii/libwiiuse.a(nunchuk.o)
                0x80017a84                nunchuk_event
 .text.nunchuk_disconnected
                0x80017b10       0x28 /opt/devkitpro/libogc/lib/wii/libwiiuse.a(nunchuk.o)
                0x80017b10                nunchuk_disconnected
 .text.nunchuk_handshake
                0x80017b38      0x150 /opt/devkitpro/libogc/lib/wii/libwiiuse.a(nunchuk.o)
                0x80017b38                nunchuk_handshake
 .text.classic_ctrl_event
                0x80017c88       0xd8 /opt/devkitpro/libogc/lib/wii/libwiiuse.a(classic.o)
                0x80017c88                classic_ctrl_event
 .text.classic_ctrl_disconnected
                0x80017d60       0x28 /opt/devkitpro/libogc/lib/wii/libwiiuse.a(classic.o)
                0x80017d60                classic_ctrl_disconnected
 .text.classic_ctrl_handshake
                0x80017d88      0x150 /opt/devkitpro/libogc/lib/wii/libwiiuse.a(classic.o)
                0x80017d88                classic_ctrl_handshake
 .text.bte_arg  0x80017ed8       0x28 /opt/devkitpro/libogc/lib/wii/libbte.a(bte.o)
                0x80017ed8                bte_arg
 .text.bte_received
                0x80017f00       0x28 /opt/devkitpro/libogc/lib/wii/libbte.a(bte.o)
                0x80017f00                bte_received
 .text.bte_disconnected
                0x80017f28       0x28 /opt/devkitpro/libogc/lib/wii/libbte.a(bte.o)
                0x80017f28                bte_disconnected
 .text.acl_wlp_completed
                0x80017f50        0x8 /opt/devkitpro/libogc/lib/wii/libbte.a(bte.o)
                0x80017f50                acl_wlp_completed
 .text.l2cap_accepted
                0x80017f58      0x10c /opt/devkitpro/libogc/lib/wii/libbte.a(bte.o)
                0x80017f58                l2cap_accepted
 .text.l2cap_disconnected_ind
                0x80018064      0x174 /opt/devkitpro/libogc/lib/wii/libbte.a(bte.o)
                0x80018064                l2cap_disconnected_ind
 .text.__bte_send_pending_request
                0x800181d8       0xe0 /opt/devkitpro/libogc/lib/wii/libbte.a(bte.o)
 .text.bte_process_input
                0x800182b8      0x100 /opt/devkitpro/libogc/lib/wii/libbte.a(bte.o)
 .text.__bte_send_request
                0x800183b8       0x90 /opt/devkitpro/libogc/lib/wii/libbte.a(bte.o)
 .text.bte_disconnect
                0x80018448       0x80 /opt/devkitpro/libogc/lib/wii/libbte.a(bte.o)
                0x80018448                bte_disconnect
 .text.l2cap_disconnect_cfm
                0x800184c8      0x118 /opt/devkitpro/libogc/lib/wii/libbte.a(bte.o)
                0x800184c8                l2cap_disconnect_cfm
 .text.acl_conn_complete
                0x800185e0       0x2c /opt/devkitpro/libogc/lib/wii/libbte.a(bte.o)
                0x800185e0                acl_conn_complete
 .text.bte_sendmessageasync
                0x8001860c      0x160 /opt/devkitpro/libogc/lib/wii/libbte.a(bte.o)
                0x8001860c                bte_sendmessageasync
 .text.bte_registerdeviceasync
                0x8001876c      0x184 /opt/devkitpro/libogc/lib/wii/libbte.a(bte.o)
                0x8001876c                bte_registerdeviceasync
 .text.bte_new  0x800188f0       0x60 /opt/devkitpro/libogc/lib/wii/libbte.a(bte.o)
                0x800188f0                bte_new
 .text.BTE_InitSub
                0x80018950       0x7c /opt/devkitpro/libogc/lib/wii/libbte.a(bte.o)
                0x80018950                BTE_InitSub
 .text.BTE_ApplyPatch
                0x800189cc       0x90 /opt/devkitpro/libogc/lib/wii/libbte.a(bte.o)
                0x800189cc                BTE_ApplyPatch
 .text.BTE_InitCore
                0x80018a5c       0x78 /opt/devkitpro/libogc/lib/wii/libbte.a(bte.o)
                0x80018a5c                BTE_InitCore
 .text.BTE_ReadStoredLinkKey
                0x80018ad4       0x7c /opt/devkitpro/libogc/lib/wii/libbte.a(bte.o)
                0x80018ad4                BTE_ReadStoredLinkKey
 .text.BTE_Shutdown
                0x80018b50       0xec /opt/devkitpro/libogc/lib/wii/libbte.a(bte.o)
                0x80018b50                BTE_Shutdown
 .text.__bte_shutdown_finished
                0x80018c3c      0x104 /opt/devkitpro/libogc/lib/wii/libbte.a(bte.o)
 .text.BTE_Init
                0x80018d40      0x120 /opt/devkitpro/libogc/lib/wii/libbte.a(bte.o)
                0x80018d40                BTE_Init
 .text.bt_alarmhandler
                0x80018e60       0x60 /opt/devkitpro/libogc/lib/wii/libbte.a(bte.o)
 .text.bte_hci_initsub_complete
                0x80018ec0      0x208 /opt/devkitpro/libogc/lib/wii/libbte.a(bte.o)
                0x80018ec0                bte_hci_initsub_complete
 .text.bte_hci_patch_complete
                0x800190c8      0x290 /opt/devkitpro/libogc/lib/wii/libbte.a(bte.o)
                0x800190c8                bte_hci_patch_complete
 .text.bte_hci_apply_patch_complete
                0x80019358      0x148 /opt/devkitpro/libogc/lib/wii/libbte.a(bte.o)
                0x80019358                bte_hci_apply_patch_complete
 .text.bte_hci_initcore_complete
                0x800194a0      0x1f4 /opt/devkitpro/libogc/lib/wii/libbte.a(bte.o)
                0x800194a0                bte_hci_initcore_complete
 .text.bte_hci_initcore_complete2
                0x80019694      0x1bc /opt/devkitpro/libogc/lib/wii/libbte.a(bte.o)
                0x80019694                bte_hci_initcore_complete2
 .text.bte_read_stored_link_key_complete
                0x80019850      0x228 /opt/devkitpro/libogc/lib/wii/libbte.a(bte.o)
                0x80019850                bte_read_stored_link_key_complete
 .text.hci_get_link
                0x80019a78       0x88 /opt/devkitpro/libogc/lib/wii/libbte.a(hci.o)
                0x80019a78                hci_get_link
 .text.hci_arg  0x80019b00       0x10 /opt/devkitpro/libogc/lib/wii/libbte.a(hci.o)
                0x80019b00                hci_arg
 .text.hci_cmd_complete
                0x80019b10       0x10 /opt/devkitpro/libogc/lib/wii/libbte.a(hci.o)
                0x80019b10                hci_cmd_complete
 .text.hci_connection_complete
                0x80019b20       0x10 /opt/devkitpro/libogc/lib/wii/libbte.a(hci.o)
                0x80019b20                hci_connection_complete
 .text.hci_wlp_complete
                0x80019b30       0x10 /opt/devkitpro/libogc/lib/wii/libbte.a(hci.o)
                0x80019b30                hci_wlp_complete
 .text.hci_cmd_ass
                0x80019b40       0x4c /opt/devkitpro/libogc/lib/wii/libbte.a(hci.o)
                0x80019b40                hci_cmd_ass
 .text.lp_pdu_maxsize
                0x80019b8c       0x10 /opt/devkitpro/libogc/lib/wii/libbte.a(hci.o)
                0x80019b8c                lp_pdu_maxsize
 .text.hci_host_num_comp_packets
                0x80019b9c       0xe8 /opt/devkitpro/libogc/lib/wii/libbte.a(hci.o)
                0x80019b9c                hci_host_num_comp_packets
 .text.hci_write_cod
                0x80019c84       0xa8 /opt/devkitpro/libogc/lib/wii/libbte.a(hci.o)
                0x80019c84                hci_write_cod
 .text.hci_disconnect
                0x80019d2c       0xf0 /opt/devkitpro/libogc/lib/wii/libbte.a(hci.o)
                0x80019d2c                hci_disconnect
 .text.hci_pin_code_request_neg_reply
                0x80019e1c       0xa8 /opt/devkitpro/libogc/lib/wii/libbte.a(hci.o)
                0x80019e1c                hci_pin_code_request_neg_reply
 .text.hci_vendor_specific_command
                0x80019ec4       0xd4 /opt/devkitpro/libogc/lib/wii/libbte.a(hci.o)
                0x80019ec4                hci_vendor_specific_command
 .text.hci_write_inquiry_scan_type
                0x80019f98       0x9c /opt/devkitpro/libogc/lib/wii/libbte.a(hci.o)
                0x80019f98                hci_write_inquiry_scan_type
 .text.hci_write_page_scan_type
                0x8001a034       0x9c /opt/devkitpro/libogc/lib/wii/libbte.a(hci.o)
                0x8001a034                hci_write_page_scan_type
 .text.hci_write_inquiry_mode
                0x8001a0d0       0x9c /opt/devkitpro/libogc/lib/wii/libbte.a(hci.o)
                0x8001a0d0                hci_write_inquiry_mode
 .text.hci_write_pin_type
                0x8001a16c       0x9c /opt/devkitpro/libogc/lib/wii/libbte.a(hci.o)
                0x8001a16c                hci_write_pin_type
 .text.hci_write_local_name
                0x8001a208       0xb8 /opt/devkitpro/libogc/lib/wii/libbte.a(hci.o)
                0x8001a208                hci_write_local_name
 .text.hci_accecpt_conn_request
                0x8001a2c0       0xbc /opt/devkitpro/libogc/lib/wii/libbte.a(hci.o)
                0x8001a2c0                hci_accecpt_conn_request
 .text.hci_write_scan_enable
                0x8001a37c       0x9c /opt/devkitpro/libogc/lib/wii/libbte.a(hci.o)
                0x8001a37c                hci_write_scan_enable
 .text.hci_read_local_features
                0x8001a418       0x88 /opt/devkitpro/libogc/lib/wii/libbte.a(hci.o)
                0x8001a418                hci_read_local_features
 .text.hci_read_local_version
                0x8001a4a0       0x88 /opt/devkitpro/libogc/lib/wii/libbte.a(hci.o)
                0x8001a4a0                hci_read_local_version
 .text.hci_read_bd_addr
                0x8001a528       0x88 /opt/devkitpro/libogc/lib/wii/libbte.a(hci.o)
                0x8001a528                hci_read_bd_addr
 .text.hci_read_buffer_size
                0x8001a5b0       0x88 /opt/devkitpro/libogc/lib/wii/libbte.a(hci.o)
                0x8001a5b0                hci_read_buffer_size
 .text.hci_reset
                0x8001a638       0x88 /opt/devkitpro/libogc/lib/wii/libbte.a(hci.o)
                0x8001a638                hci_reset
 .text.lp_acl_write
                0x8001a6c0      0x1b8 /opt/devkitpro/libogc/lib/wii/libbte.a(hci.o)
                0x8001a6c0                lp_acl_write
 .text.hci_new  0x8001a878       0x54 /opt/devkitpro/libogc/lib/wii/libbte.a(hci.o)
                0x8001a878                hci_new
 .text.hci_read_stored_link_key
                0x8001a8cc       0xf0 /opt/devkitpro/libogc/lib/wii/libbte.a(hci.o)
                0x8001a8cc                hci_read_stored_link_key
 .text.hci_close
                0x8001a9bc      0x13c /opt/devkitpro/libogc/lib/wii/libbte.a(hci.o)
                0x8001a9bc                hci_close
 .text.hci_init
                0x8001aaf8       0xc0 /opt/devkitpro/libogc/lib/wii/libbte.a(hci.o)
                0x8001aaf8                hci_init
 .text.hci_reset_all
                0x8001abb8       0xd4 /opt/devkitpro/libogc/lib/wii/libbte.a(hci.o)
                0x8001abb8                hci_reset_all
 .text.hci_write_page_timeout
                0x8001ac8c       0xac /opt/devkitpro/libogc/lib/wii/libbte.a(hci.o)
                0x8001ac8c                hci_write_page_timeout
 .text.hci_acldata_handler
                0x8001ad38      0x138 /opt/devkitpro/libogc/lib/wii/libbte.a(hci.o)
                0x8001ad38                hci_acldata_handler
 .text.hci_event_handler
                0x8001ae70      0xbe0 /opt/devkitpro/libogc/lib/wii/libbte.a(hci.o)
                0x8001ae70                hci_event_handler
 .text.lp_write_flush_timeout
                0x8001ba50       0xf8 /opt/devkitpro/libogc/lib/wii/libbte.a(hci.o)
                0x8001ba50                lp_write_flush_timeout
 .text.hci_host_buffer_size
                0x8001bb48       0xec /opt/devkitpro/libogc/lib/wii/libbte.a(hci.o)
                0x8001bb48                hci_host_buffer_size
 .text.hci_write_link_policy_settings
                0x8001bc34       0xf8 /opt/devkitpro/libogc/lib/wii/libbte.a(hci.o)
                0x8001bc34                hci_write_link_policy_settings
 .text.l2cap_cid_alloc
                0x8001bd2c       0x60 /opt/devkitpro/libogc/lib/wii/libbte.a(l2cap.o)
 .text.lp_connect_ind
                0x8001bd8c        0x4 /opt/devkitpro/libogc/lib/wii/libbte.a(l2cap.o)
                0x8001bd8c                lp_connect_ind
 .text.l2cap_next_sigid
                0x8001bd90       0x2c /opt/devkitpro/libogc/lib/wii/libbte.a(l2cap.o)
                0x8001bd90                l2cap_next_sigid
 .text.l2cap_arg
                0x8001bdbc        0x8 /opt/devkitpro/libogc/lib/wii/libbte.a(l2cap.o)
                0x8001bdbc                l2cap_arg
 .text.l2cap_disconnect_ind
                0x8001bdc4        0x8 /opt/devkitpro/libogc/lib/wii/libbte.a(l2cap.o)
                0x8001bdc4                l2cap_disconnect_ind
 .text.l2cap_recv
                0x8001bdcc        0x8 /opt/devkitpro/libogc/lib/wii/libbte.a(l2cap.o)
                0x8001bdcc                l2cap_recv
 .text.l2cap_connect_ind
                0x8001bdd4      0x118 /opt/devkitpro/libogc/lib/wii/libbte.a(l2cap.o)
                0x8001bdd4                l2cap_connect_ind
 .text.l2cap_close
                0x8001beec      0x1c8 /opt/devkitpro/libogc/lib/wii/libbte.a(l2cap.o)
                0x8001beec                l2cap_close
 .text.lp_disconnect_ind
                0x8001c0b4       0xe8 /opt/devkitpro/libogc/lib/wii/libbte.a(l2cap.o)
                0x8001c0b4                lp_disconnect_ind
 .text.l2cap_new
                0x8001c19c       0xa0 /opt/devkitpro/libogc/lib/wii/libbte.a(l2cap.o)
                0x8001c19c                l2cap_new
 .text.l2cap_write
                0x8001c23c      0x1a4 /opt/devkitpro/libogc/lib/wii/libbte.a(l2cap.o)
                0x8001c23c                l2cap_write
 .text.l2cap_rexmit_signal
                0x8001c3e0       0x2c /opt/devkitpro/libogc/lib/wii/libbte.a(l2cap.o)
                0x8001c3e0                l2cap_rexmit_signal
 .text.l2cap_signal
                0x8001c40c      0x210 /opt/devkitpro/libogc/lib/wii/libbte.a(l2cap.o)
                0x8001c40c                l2cap_signal
 .text.l2ca_disconnect_req
                0x8001c61c       0xe4 /opt/devkitpro/libogc/lib/wii/libbte.a(l2cap.o)
                0x8001c61c                l2ca_disconnect_req
 .text.l2cap_tmr
                0x8001c700      0x244 /opt/devkitpro/libogc/lib/wii/libbte.a(l2cap.o)
                0x8001c700                l2cap_tmr
 .text.l2ca_config_req
                0x8001c944      0x1ac /opt/devkitpro/libogc/lib/wii/libbte.a(l2cap.o)
                0x8001c944                l2ca_config_req
 .text.l2cap_process_sig
                0x8001caf0     0x12cc /opt/devkitpro/libogc/lib/wii/libbte.a(l2cap.o)
                0x8001caf0                l2cap_process_sig
 .text.l2cap_init
                0x8001ddbc       0x80 /opt/devkitpro/libogc/lib/wii/libbte.a(l2cap.o)
                0x8001ddbc                l2cap_init
 .text.l2cap_reset_all
                0x8001de3c      0x150 /opt/devkitpro/libogc/lib/wii/libbte.a(l2cap.o)
                0x8001de3c                l2cap_reset_all
 .text.lp_connect_cfm
                0x8001df8c      0x194 /opt/devkitpro/libogc/lib/wii/libbte.a(l2cap.o)
                0x8001df8c                lp_connect_cfm
 .text.l2ca_datawrite
                0x8001e120      0x144 /opt/devkitpro/libogc/lib/wii/libbte.a(l2cap.o)
                0x8001e120                l2ca_datawrite
 .text.l2cap_input
                0x8001e264      0x590 /opt/devkitpro/libogc/lib/wii/libbte.a(l2cap.o)
                0x8001e264                l2cap_input
 .text.btmemb_alloc
                0x8001e7f4       0x98 /opt/devkitpro/libogc/lib/wii/libbte.a(btmemb.o)
                0x8001e7f4                btmemb_alloc
 .text.btmemb_free
                0x8001e88c       0x94 /opt/devkitpro/libogc/lib/wii/libbte.a(btmemb.o)
                0x8001e88c                btmemb_free
 .text.btmemb_init
                0x8001e920       0x40 /opt/devkitpro/libogc/lib/wii/libbte.a(btmemb.o)
                0x8001e920                btmemb_init
 .text.plug_holes
                0x8001e960       0xcc /opt/devkitpro/libogc/lib/wii/libbte.a(btmemr.o)
 .text.btmemr_malloc
                0x8001ea2c      0x168 /opt/devkitpro/libogc/lib/wii/libbte.a(btmemr.o)
                0x8001ea2c                btmemr_malloc
 .text.btmemr_free
                0x8001eb94       0x8c /opt/devkitpro/libogc/lib/wii/libbte.a(btmemr.o)
                0x8001eb94                btmemr_free
 .text.btmemr_realloc
                0x8001ec20      0x13c /opt/devkitpro/libogc/lib/wii/libbte.a(btmemr.o)
                0x8001ec20                btmemr_realloc
 .text.btmemr_init
                0x8001ed5c       0x98 /opt/devkitpro/libogc/lib/wii/libbte.a(btmemr.o)
                0x8001ed5c                btmemr_init
 .text.btpbuf_header
                0x8001edf4       0xa8 /opt/devkitpro/libogc/lib/wii/libbte.a(btpbuf.o)
                0x8001edf4                btpbuf_header
 .text.btpbuf_ref
                0x8001ee9c       0x38 /opt/devkitpro/libogc/lib/wii/libbte.a(btpbuf.o)
                0x8001ee9c                btpbuf_ref
 .text.btpbuf_cat
                0x8001eed4       0x5c /opt/devkitpro/libogc/lib/wii/libbte.a(btpbuf.o)
                0x8001eed4                btpbuf_cat
 .text.btpbuf_chain
                0x8001ef30       0x30 /opt/devkitpro/libogc/lib/wii/libbte.a(btpbuf.o)
                0x8001ef30                btpbuf_chain
 .text.btpbuf_free
                0x8001ef60       0xfc /opt/devkitpro/libogc/lib/wii/libbte.a(btpbuf.o)
                0x8001ef60                btpbuf_free
 .text.btpbuf_dechain
                0x8001f05c       0x7c /opt/devkitpro/libogc/lib/wii/libbte.a(btpbuf.o)
                0x8001f05c                btpbuf_dechain
 .text.btpbuf_realloc
                0x8001f0d8       0xc0 /opt/devkitpro/libogc/lib/wii/libbte.a(btpbuf.o)
                0x8001f0d8                btpbuf_realloc
 .text.btpbuf_alloc
                0x8001f198      0x334 /opt/devkitpro/libogc/lib/wii/libbte.a(btpbuf.o)
                0x8001f198                btpbuf_alloc
 .text.btpbuf_take
                0x8001f4cc      0x124 /opt/devkitpro/libogc/lib/wii/libbte.a(btpbuf.o)
                0x8001f4cc                btpbuf_take
 .text.btpbuf_init
                0x8001f5f0       0x34 /opt/devkitpro/libogc/lib/wii/libbte.a(btpbuf.o)
                0x8001f5f0                btpbuf_init
 .text.__usb_closeCB
                0x8001f624       0x10 /opt/devkitpro/libogc/lib/wii/libbte.a(physbusif.o)
 .text.physbusif_close
                0x8001f634       0x2c /opt/devkitpro/libogc/lib/wii/libbte.a(physbusif.o)
                0x8001f634                physbusif_close
 .text.physbusif_reset_all
                0x8001f660        0x4 /opt/devkitpro/libogc/lib/wii/libbte.a(physbusif.o)
                0x8001f660                physbusif_reset_all
 .text.physbusif_output
                0x8001f664      0x18c /opt/devkitpro/libogc/lib/wii/libbte.a(physbusif.o)
                0x8001f664                physbusif_output
 .text.__writebulkmsgCB
                0x8001f7f0       0x40 /opt/devkitpro/libogc/lib/wii/libbte.a(physbusif.o)
 .text.__writectrlmsgCB
                0x8001f830       0x40 /opt/devkitpro/libogc/lib/wii/libbte.a(physbusif.o)
 .text.physbusif_shutdown
                0x8001f870       0x50 /opt/devkitpro/libogc/lib/wii/libbte.a(physbusif.o)
                0x8001f870                physbusif_shutdown
 .text.__initUsbIOBuffer
                0x8001f8c0       0x98 /opt/devkitpro/libogc/lib/wii/libbte.a(physbusif.o)
 .text.__issue_intrread
                0x8001f958       0xbc /opt/devkitpro/libogc/lib/wii/libbte.a(physbusif.o)
 .text.__readintrdataCB
                0x8001fa14      0x140 /opt/devkitpro/libogc/lib/wii/libbte.a(physbusif.o)
 .text.__issue_bulkread
                0x8001fb54       0xbc /opt/devkitpro/libogc/lib/wii/libbte.a(physbusif.o)
 .text.physbusif_init
                0x8001fc10      0x1d0 /opt/devkitpro/libogc/lib/wii/libbte.a(physbusif.o)
                0x8001fc10                physbusif_init
 .text.__readbulkdataCB
                0x8001fde0      0x140 /opt/devkitpro/libogc/lib/wii/libbte.a(physbusif.o)
 .text.__lwp_queue_initialize
                0x8001ff20       0x54 /opt/devkitpro/libogc/lib/wii/libogc.a(lwp_queue.o)
                0x8001ff20                __lwp_queue_initialize
 .text.__lwp_queue_get
                0x8001ff74       0x54 /opt/devkitpro/libogc/lib/wii/libogc.a(lwp_queue.o)
                0x8001ff74                __lwp_queue_get
 .text.__lwp_queue_append
                0x8001ffc8       0x3c /opt/devkitpro/libogc/lib/wii/libogc.a(lwp_queue.o)
                0x8001ffc8                __lwp_queue_append
 .text.__lwp_isr_in_progress
                0x80020004        0x8 /opt/devkitpro/libogc/lib/wii/libogc.a(lwp_threads.o)
                0x80020004                __lwp_isr_in_progress
 .text.__lwp_thread_setstate
                0x8002000c      0x128 /opt/devkitpro/libogc/lib/wii/libogc.a(lwp_threads.o)
                0x8002000c                __lwp_thread_setstate
 .text.__lwp_thread_clearstate
                0x80020134       0xe4 /opt/devkitpro/libogc/lib/wii/libogc.a(lwp_threads.o)
                0x80020134                __lwp_thread_clearstate
 .text.__lwp_thread_setpriority
                0x80020218       0x5c /opt/devkitpro/libogc/lib/wii/libogc.a(lwp_threads.o)
                0x80020218                __lwp_thread_setpriority
 .text.__lwp_thread_settransient
                0x80020274       0xa8 /opt/devkitpro/libogc/lib/wii/libogc.a(lwp_threads.o)
                0x80020274                __lwp_thread_settransient
 .text.__lwp_thread_loadenv
                0x8002031c       0x78 /opt/devkitpro/libogc/lib/wii/libogc.a(lwp_threads.o)
                0x8002031c                __lwp_thread_loadenv
 .text.__lwp_thread_ready
                0x80020394       0xd8 /opt/devkitpro/libogc/lib/wii/libogc.a(lwp_threads.o)
                0x80020394                __lwp_thread_ready
 .text.__thread_dispatch
                0x8002046c      0x110 /opt/devkitpro/libogc/lib/wii/libogc.a(lwp_threads.o)
                0x8002046c                __thread_dispatch
 .text.__lwp_thread_start
                0x8002057c       0x64 /opt/devkitpro/libogc/lib/wii/libogc.a(lwp_threads.o)
                0x8002057c                __lwp_thread_start
 .text.__lwp_thread_close
                0x800205e0      0x11c /opt/devkitpro/libogc/lib/wii/libogc.a(lwp_threads.o)
                0x800205e0                __lwp_thread_close
 .text.__lwp_thread_init
                0x800206fc      0x108 /opt/devkitpro/libogc/lib/wii/libogc.a(lwp_threads.o)
                0x800206fc                __lwp_thread_init
 .text.__thread_dispatch_fp
                0x80020804       0x60 /opt/devkitpro/libogc/lib/wii/libogc.a(lwp_threads.o)
                0x80020804                __thread_dispatch_fp
 .text.__lwp_thread_stopmultitasking
                0x80020864       0x50 /opt/devkitpro/libogc/lib/wii/libogc.a(lwp_threads.o)
                0x80020864                __lwp_thread_stopmultitasking
 .text.__lwp_thread_startmultitasking
                0x800208b4       0x70 /opt/devkitpro/libogc/lib/wii/libogc.a(lwp_threads.o)
                0x800208b4                __lwp_thread_startmultitasking
 .text.__lwp_thread_closeall
                0x80020924      0x10c /opt/devkitpro/libogc/lib/wii/libogc.a(lwp_threads.o)
                0x80020924                __lwp_thread_closeall
 .text.__lwp_thread_changepriority
                0x80020a30      0x188 /opt/devkitpro/libogc/lib/wii/libogc.a(lwp_threads.o)
                0x80020a30                __lwp_thread_changepriority
 .text.__lwp_thread_coreinit
                0x80020bb8       0x64 /opt/devkitpro/libogc/lib/wii/libogc.a(lwp_threads.o)
                0x80020bb8                __lwp_thread_coreinit
 .text.__lwp_thread_resume
                0x80020c1c      0x104 /opt/devkitpro/libogc/lib/wii/libogc.a(lwp_threads.o)
                0x80020c1c                __lwp_thread_resume
 .text.__lwp_thread_suspend
                0x80020d20      0x134 /opt/devkitpro/libogc/lib/wii/libogc.a(lwp_threads.o)
                0x80020d20                __lwp_thread_suspend
 .text.__lwp_thread_exit
                0x80020e54       0x70 /opt/devkitpro/libogc/lib/wii/libogc.a(lwp_threads.o)
                0x80020e54                __lwp_thread_exit
 .text.__lwp_thread_handler
                0x80020ec4       0x7c /opt/devkitpro/libogc/lib/wii/libogc.a(lwp_threads.o)
 .text.idle_func
                0x80020f40        0x4 /opt/devkitpro/libogc/lib/wii/libogc.a(lwp.o)
 .text.LWP_GetSelf
                0x80020f44       0x24 /opt/devkitpro/libogc/lib/wii/libogc.a(lwp.o)
                0x80020f44                LWP_GetSelf
 .text.__lwp_sysinit
                0x80020f68      0x118 /opt/devkitpro/libogc/lib/wii/libogc.a(lwp.o)
                0x80020f68                __lwp_sysinit
 .text.LWP_ThreadSignal
                0x80021080       0x74 /opt/devkitpro/libogc/lib/wii/libogc.a(lwp.o)
                0x80021080                LWP_ThreadSignal
 .text.LWP_ThreadBroadcast
                0x800210f4       0x88 /opt/devkitpro/libogc/lib/wii/libogc.a(lwp.o)
                0x800210f4                LWP_ThreadBroadcast
 .text.LWP_ThreadSleep
                0x8002117c       0xd4 /opt/devkitpro/libogc/lib/wii/libogc.a(lwp.o)
                0x8002117c                LWP_ThreadSleep
 .text.LWP_CloseQueue
                0x80021250       0xe8 /opt/devkitpro/libogc/lib/wii/libogc.a(lwp.o)
                0x80021250                LWP_CloseQueue
 .text.LWP_InitQueue
                0x80021338      0x124 /opt/devkitpro/libogc/lib/wii/libogc.a(lwp.o)
                0x80021338                LWP_InitQueue
 .text.LWP_ResumeThread
                0x8002145c       0xb0 /opt/devkitpro/libogc/lib/wii/libogc.a(lwp.o)
                0x8002145c                LWP_ResumeThread
 .text.LWP_SuspendThread
                0x8002150c       0xac /opt/devkitpro/libogc/lib/wii/libogc.a(lwp.o)
                0x8002150c                LWP_SuspendThread
 .text.__lwp_stack_free
                0x800215b8       0x38 /opt/devkitpro/libogc/lib/wii/libogc.a(lwp_stack.o)
                0x800215b8                __lwp_stack_free
 .text.__lwp_stack_allocate
                0x800215f0       0x6c /opt/devkitpro/libogc/lib/wii/libogc.a(lwp_stack.o)
                0x800215f0                __lwp_stack_allocate
 .text.__lwp_watchdog_init
                0x8002165c       0x2c /opt/devkitpro/libogc/lib/wii/libogc.a(lwp_watchdog.o)
                0x8002165c                __lwp_watchdog_init
 .text.__lwp_wd_settimer
                0x80021688       0xc0 /opt/devkitpro/libogc/lib/wii/libogc.a(lwp_watchdog.o)
 .text.__lwp_wd_remove
                0x80021748      0x118 /opt/devkitpro/libogc/lib/wii/libogc.a(lwp_watchdog.o)
                0x80021748                __lwp_wd_remove
 .text.__lwp_wd_insert
                0x80021860      0x1d4 /opt/devkitpro/libogc/lib/wii/libogc.a(lwp_watchdog.o)
                0x80021860                __lwp_wd_insert
 .text.__lwp_wd_tickle
                0x80021a34      0x104 /opt/devkitpro/libogc/lib/wii/libogc.a(lwp_watchdog.o)
                0x80021a34                __lwp_wd_tickle
 .text.__lwp_wkspace_init
                0x80021b38       0xb0 /opt/devkitpro/libogc/lib/wii/libogc.a(lwp_wkspace.o)
                0x80021b38                __lwp_wkspace_init
 .text.__lwp_objmgr_getisrdisable
                0x80021be8       0x50 /opt/devkitpro/libogc/lib/wii/libogc.a(lwp_objmgr.o)
                0x80021be8                __lwp_objmgr_getisrdisable
 .text.__lwp_objmgr_getnoprotection
                0x80021c38       0x24 /opt/devkitpro/libogc/lib/wii/libogc.a(lwp_objmgr.o)
                0x80021c38                __lwp_objmgr_getnoprotection
 .text.__lwp_objmgr_allocate
                0x80021c5c       0x60 /opt/devkitpro/libogc/lib/wii/libogc.a(lwp_objmgr.o)
                0x80021c5c                __lwp_objmgr_allocate
 .text.__lwp_objmgr_free
                0x80021cbc       0x4c /opt/devkitpro/libogc/lib/wii/libogc.a(lwp_objmgr.o)
                0x80021cbc                __lwp_objmgr_free
 .text.__lwp_objmgr_get
                0x80021d08       0x78 /opt/devkitpro/libogc/lib/wii/libogc.a(lwp_objmgr.o)
                0x80021d08                __lwp_objmgr_get
 .text.__lwp_objmgr_initinfo
                0x80021d80      0x1b0 /opt/devkitpro/libogc/lib/wii/libogc.a(lwp_objmgr.o)
                0x80021d80                __lwp_objmgr_initinfo
 .text.__lwp_heap_init
                0x80021f30       0x8c /opt/devkitpro/libogc/lib/wii/libogc.a(lwp_heap.o)
                0x80021f30                __lwp_heap_init
 .text.__lwp_heap_free
                0x80021fbc      0x184 /opt/devkitpro/libogc/lib/wii/libogc.a(lwp_heap.o)
                0x80021fbc                __lwp_heap_free
 .text.__lwp_heap_allocate
                0x80022140      0x130 /opt/devkitpro/libogc/lib/wii/libogc.a(lwp_heap.o)
                0x80022140                __lwp_heap_allocate
 .text.c_irqdispatcher
                0x80022270      0x2ac /opt/devkitpro/libogc/lib/wii/libogc.a(irq.o)
                0x80022270                c_irqdispatcher
 .text.__SetInterrupts
                0x8002251c      0x268 /opt/devkitpro/libogc/lib/wii/libogc.a(irq.o)
 .text.__UnmaskIrq
                0x80022784       0x80 /opt/devkitpro/libogc/lib/wii/libogc.a(irq.o)
                0x80022784                __UnmaskIrq
 .text.__MaskIrq
                0x80022804       0x80 /opt/devkitpro/libogc/lib/wii/libogc.a(irq.o)
                0x80022804                __MaskIrq
 .text.IRQ_Request
                0x80022884       0x44 /opt/devkitpro/libogc/lib/wii/libogc.a(irq.o)
                0x80022884                IRQ_Request
 .text.IRQ_GetHandler
                0x800228c8       0x34 /opt/devkitpro/libogc/lib/wii/libogc.a(irq.o)
                0x800228c8                IRQ_GetHandler
 .text.IRQ_Disable
                0x800228fc       0x20 /opt/devkitpro/libogc/lib/wii/libogc.a(irq.o)
                0x800228fc                IRQ_Disable
 .text.IRQ_Restore
                0x8002291c        0x8 /opt/devkitpro/libogc/lib/wii/libogc.a(irq.o)
                0x8002291c                IRQ_Restore
 .text.__irq_init
                0x80022924       0xac /opt/devkitpro/libogc/lib/wii/libogc.a(irq.o)
                0x80022924                __irq_init
 .text.__gettiming
                0x800229d0       0xb0 /opt/devkitpro/libogc/lib/wii/libogc.a(video.o)
 .text.VIDEO_Flush
                0x80022a80      0x164 /opt/devkitpro/libogc/lib/wii/libogc.a(video.o)
                0x80022a80                VIDEO_Flush
 .text.VIDEO_GetCurrentTvMode
                0x80022be4       0x60 /opt/devkitpro/libogc/lib/wii/libogc.a(video.o)
                0x80022be4                VIDEO_GetCurrentTvMode
 .text.VIDEO_HaveComponentCable
                0x80022c44       0x14 /opt/devkitpro/libogc/lib/wii/libogc.a(video.o)
                0x80022c44                VIDEO_HaveComponentCable
 .text.VIDEO_GetPreferredMode
                0x80022c58       0xd0 /opt/devkitpro/libogc/lib/wii/libogc.a(video.o)
                0x80022c58                VIDEO_GetPreferredMode
 .text.VIDEO_WaitVSync
                0x80022d28       0x7c /opt/devkitpro/libogc/lib/wii/libogc.a(video.o)
                0x80022d28                VIDEO_WaitVSync
 .text.VIDEO_Init
                0x80022da4      0x6e0 /opt/devkitpro/libogc/lib/wii/libogc.a(video.o)
                0x80022da4                VIDEO_Init
 .text.__VISendI2CData
                0x80023484      0x524 /opt/devkitpro/libogc/lib/wii/libogc.a(video.o)
 .text.__VISetFilterEURGB60
                0x800239a8       0x3c /opt/devkitpro/libogc/lib/wii/libogc.a(video.o)
 .text.__VIRetraceHandler
                0x800239e4      0x38c /opt/devkitpro/libogc/lib/wii/libogc.a(video.o)
 .text.VIDEO_GetCurrentLine
                0x80023d70       0x94 /opt/devkitpro/libogc/lib/wii/libogc.a(video.o)
                0x80023d70                VIDEO_GetCurrentLine
 .text.VIDEO_SetBlack
                0x80023e04      0x144 /opt/devkitpro/libogc/lib/wii/libogc.a(video.o)
                0x80023e04                VIDEO_SetBlack
 .text.VIDEO_Configure
                0x80023f48      0x860 /opt/devkitpro/libogc/lib/wii/libogc.a(video.o)
                0x80023f48                VIDEO_Configure
 .text.VIDEO_SetNextFramebuffer
                0x800247a8      0x220 /opt/devkitpro/libogc/lib/wii/libogc.a(video.o)
                0x800247a8                VIDEO_SetNextFramebuffer
 .text.VIDEO_SetFramebuffer
                0x800249c8      0x32c /opt/devkitpro/libogc/lib/wii/libogc.a(video.o)
                0x800249c8                VIDEO_SetFramebuffer
 .text.__MEMInterruptHandler
                0x80024cf4       0x14 /opt/devkitpro/libogc/lib/wii/libogc.a(system.o)
 .text.__RSWDefaultHandler
                0x80024d08        0x4 /opt/devkitpro/libogc/lib/wii/libogc.a(system.o)
 .text.__POWDefaultHandler
                0x80024d0c        0x4 /opt/devkitpro/libogc/lib/wii/libogc.a(system.o)
 .text.__STMEventHandler
                0x80024d10       0xf4 /opt/devkitpro/libogc/lib/wii/libogc.a(system.o)
 .text.__sram_sync
                0x80024e04        0xc /opt/devkitpro/libogc/lib/wii/libogc.a(system.o)
 .text.__call_resetfuncs
                0x80024e10       0xb0 /opt/devkitpro/libogc/lib/wii/libogc.a(system.o)
 .text.__locksram
                0x80024ec0       0x54 /opt/devkitpro/libogc/lib/wii/libogc.a(system.o)
 .text.__SYS_LockSram
                0x80024f14        0x8 /opt/devkitpro/libogc/lib/wii/libogc.a(system.o)
                0x80024f14                __SYS_LockSram
 .text.__SYS_LockSramEx
                0x80024f1c        0x8 /opt/devkitpro/libogc/lib/wii/libogc.a(system.o)
                0x80024f1c                __SYS_LockSramEx
 .text.__SYS_GetIPCBufferLo
                0x80024f24        0xc /opt/devkitpro/libogc/lib/wii/libogc.a(system.o)
                0x80024f24                __SYS_GetIPCBufferLo
 .text.__SYS_GetIPCBufferHi
                0x80024f30        0xc /opt/devkitpro/libogc/lib/wii/libogc.a(system.o)
                0x80024f30                __SYS_GetIPCBufferHi
 .text._V_EXPORTNAME
                0x80024f3c       0x24 /opt/devkitpro/libogc/lib/wii/libogc.a(system.o)
                0x80024f3c                _V_EXPORTNAME
 .text.__SYS_InitCallbacks
                0x80024f60       0x30 /opt/devkitpro/libogc/lib/wii/libogc.a(system.o)
                0x80024f60                __SYS_InitCallbacks
 .text.SYS_RegisterResetFunc
                0x80024f90       0x80 /opt/devkitpro/libogc/lib/wii/libogc.a(system.o)
                0x80024f90                SYS_RegisterResetFunc
 .text.SYS_SetArena1Lo
                0x80025010       0x2c /opt/devkitpro/libogc/lib/wii/libogc.a(system.o)
                0x80025010                SYS_SetArena1Lo
 .text.SYS_GetArena1Lo
                0x8002503c       0x2c /opt/devkitpro/libogc/lib/wii/libogc.a(system.o)
                0x8002503c                SYS_GetArena1Lo
 .text.SYS_SetArena1Hi
                0x80025068       0x2c /opt/devkitpro/libogc/lib/wii/libogc.a(system.o)
                0x80025068                SYS_SetArena1Hi
 .text.SYS_GetArena1Hi
                0x80025094       0x2c /opt/devkitpro/libogc/lib/wii/libogc.a(system.o)
                0x80025094                SYS_GetArena1Hi
 .text.SYS_SetArena2Lo
                0x800250c0       0x2c /opt/devkitpro/libogc/lib/wii/libogc.a(system.o)
                0x800250c0                SYS_SetArena2Lo
 .text.SYS_GetArena2Lo
                0x800250ec       0x2c /opt/devkitpro/libogc/lib/wii/libogc.a(system.o)
                0x800250ec                SYS_GetArena2Lo
 .text.SYS_SetArena2Hi
                0x80025118       0x2c /opt/devkitpro/libogc/lib/wii/libogc.a(system.o)
                0x80025118                SYS_SetArena2Hi
 .text.SYS_GetArena2Hi
                0x80025144       0x2c /opt/devkitpro/libogc/lib/wii/libogc.a(system.o)
                0x80025144                SYS_GetArena2Hi
 .text.SYS_GetHollywoodRevision
                0x80025170       0x3c /opt/devkitpro/libogc/lib/wii/libogc.a(system.o)
                0x80025170                SYS_GetHollywoodRevision
 .text.__sys_alarmhandler
                0x800251ac      0x104 /opt/devkitpro/libogc/lib/wii/libogc.a(system.o)
 .text.SYS_AllocateFramebuffer
                0x800252b0       0x3c /opt/devkitpro/libogc/lib/wii/libogc.a(system.o)
                0x800252b0                SYS_AllocateFramebuffer
 .text.__mem_onreset
                0x800252ec       0x54 /opt/devkitpro/libogc/lib/wii/libogc.a(system.o)
 .text.__SYS_LoadMenu
                0x80025340       0xa4 /opt/devkitpro/libogc/lib/wii/libogc.a(system.o)
                0x80025340                __SYS_LoadMenu
 .text.SYS_PreMain
                0x800253e4       0x34 /opt/devkitpro/libogc/lib/wii/libogc.a(system.o)
                0x800253e4                SYS_PreMain
 .text.__sram_init
                0x80025418      0x168 /opt/devkitpro/libogc/lib/wii/libogc.a(system.o)
                0x80025418                __sram_init
 .text.SYS_Init
                0x80025580      0x51c /opt/devkitpro/libogc/lib/wii/libogc.a(system.o)
                0x80025580                SYS_Init
 .text.__sram_write
                0x80025a9c      0x148 /opt/devkitpro/libogc/lib/wii/libogc.a(system.o)
 .text.__unlocksram
                0x80025be4      0x12c /opt/devkitpro/libogc/lib/wii/libogc.a(system.o)
 .text.__SYS_UnlockSramEx
                0x80025d10        0x8 /opt/devkitpro/libogc/lib/wii/libogc.a(system.o)
                0x80025d10                __SYS_UnlockSramEx
 .text.SYS_GetWirelessID
                0x80025d18       0x4c /opt/devkitpro/libogc/lib/wii/libogc.a(system.o)
                0x80025d18                SYS_GetWirelessID
 .text.SYS_SetWirelessID
                0x80025d64       0x60 /opt/devkitpro/libogc/lib/wii/libogc.a(system.o)
                0x80025d64                SYS_SetWirelessID
 .text.__SYS_UnlockSram
                0x80025dc4        0x8 /opt/devkitpro/libogc/lib/wii/libogc.a(system.o)
                0x80025dc4                __SYS_UnlockSram
 .text.__sram_writecallback
                0x80025dcc       0x58 /opt/devkitpro/libogc/lib/wii/libogc.a(system.o)
 .text.SYS_ResetSystem
                0x80025e24      0x234 /opt/devkitpro/libogc/lib/wii/libogc.a(system.o)
                0x80025e24                SYS_ResetSystem
 .text.SYS_CancelAlarm
                0x80026058       0x88 /opt/devkitpro/libogc/lib/wii/libogc.a(system.o)
                0x80026058                SYS_CancelAlarm
 .text.SYS_RemoveAlarm
                0x800260e0       0xf0 /opt/devkitpro/libogc/lib/wii/libogc.a(system.o)
                0x800260e0                SYS_RemoveAlarm
 .text.SYS_CreateAlarm
                0x800261d0      0x10c /opt/devkitpro/libogc/lib/wii/libogc.a(system.o)
                0x800261d0                SYS_CreateAlarm
 .text.SYS_SetPeriodicAlarm
                0x800262dc      0x1dc /opt/devkitpro/libogc/lib/wii/libogc.a(system.o)
                0x800262dc                SYS_SetPeriodicAlarm
 .text.SYS_SetAlarm
                0x800264b8      0x17c /opt/devkitpro/libogc/lib/wii/libogc.a(system.o)
                0x800264b8                SYS_SetAlarm
 .text.__lwp_cond_init
                0x80026634       0x30 /opt/devkitpro/libogc/lib/wii/libogc.a(cond.o)
                0x80026634                __lwp_cond_init
 .text.__GX_IsGPFifoReady
                0x80026664        0xc /opt/devkitpro/libogc/lib/wii/libogc.a(gx.o)
 .text.__GX_InitRevBits
                0x80026670       0x9c /opt/devkitpro/libogc/lib/wii/libogc.a(gx.o)
 .text.__GX_ReadMemCounterU32
                0x8002670c       0x38 /opt/devkitpro/libogc/lib/wii/libogc.a(gx.o)
 .text.__GXTokenInterruptHandler
                0x80026744       0x54 /opt/devkitpro/libogc/lib/wii/libogc.a(gx.o)
 .text.__GXDefTlutRegionCallback
                0x80026798       0x18 /opt/devkitpro/libogc/lib/wii/libogc.a(gx.o)
 .text.__GX_FlushTextureState
                0x800267b0       0x24 /opt/devkitpro/libogc/lib/wii/libogc.a(gx.o)
 .text.__GX_SetMatrixIndex
                0x800267d4       0x88 /opt/devkitpro/libogc/lib/wii/libogc.a(gx.o)
 .text.__SetSURegs
                0x8002685c       0xa8 /opt/devkitpro/libogc/lib/wii/libogc.a(gx.o)
 .text.__GX_SetDirtyState
                0x80026904      0x5c8 /opt/devkitpro/libogc/lib/wii/libogc.a(gx.o)
 .text.__GX_GetNumXfbLines
                0x80026ecc       0x5c /opt/devkitpro/libogc/lib/wii/libogc.a(gx.o)
 .text.GX_InitFifoLimits
                0x80026f28        0xc /opt/devkitpro/libogc/lib/wii/libogc.a(gx.o)
                0x80026f28                GX_InitFifoLimits
 .text.GX_InitFifoPtrs
                0x80026f34       0x48 /opt/devkitpro/libogc/lib/wii/libogc.a(gx.o)
                0x80026f34                GX_InitFifoPtrs
 .text.GX_InitFifoBase
                0x80026f7c       0xb0 /opt/devkitpro/libogc/lib/wii/libogc.a(gx.o)
                0x80026f7c                GX_InitFifoBase
 .text.GX_SetCPUFifo
                0x8002702c      0x174 /opt/devkitpro/libogc/lib/wii/libogc.a(gx.o)
                0x8002702c                GX_SetCPUFifo
 .text.GX_SetGPFifo
                0x800271a0      0x1fc /opt/devkitpro/libogc/lib/wii/libogc.a(gx.o)
                0x800271a0                GX_SetGPFifo
 .text.GX_Flush
                0x8002739c       0x64 /opt/devkitpro/libogc/lib/wii/libogc.a(gx.o)
                0x8002739c                GX_Flush
 .text.GX_SetViewportJitter
                0x80027400       0x88 /opt/devkitpro/libogc/lib/wii/libogc.a(gx.o)
                0x80027400                GX_SetViewportJitter
 .text.GX_SetViewport
                0x80027488        0x8 /opt/devkitpro/libogc/lib/wii/libogc.a(gx.o)
                0x80027488                GX_SetViewport
 .text.GX_LoadProjectionMtx
                0x80027490       0xc0 /opt/devkitpro/libogc/lib/wii/libogc.a(gx.o)
                0x80027490                GX_LoadProjectionMtx
 .text.GX_SetCopyClear
                0x80027550       0x54 /opt/devkitpro/libogc/lib/wii/libogc.a(gx.o)
                0x80027550                GX_SetCopyClear
 .text.GX_SetCopyClamp
                0x800275a4       0x28 /opt/devkitpro/libogc/lib/wii/libogc.a(gx.o)
                0x800275a4                GX_SetCopyClamp
 .text.GX_SetDispCopyGamma
                0x800275cc       0x20 /opt/devkitpro/libogc/lib/wii/libogc.a(gx.o)
                0x800275cc                GX_SetDispCopyGamma
 .text.GX_SetCopyFilter
                0x800275ec      0x278 /opt/devkitpro/libogc/lib/wii/libogc.a(gx.o)
                0x800275ec                GX_SetCopyFilter
 .text.GX_SetDispCopyFrame2Field
                0x80027864       0x20 /opt/devkitpro/libogc/lib/wii/libogc.a(gx.o)
                0x80027864                GX_SetDispCopyFrame2Field
 .text.GX_SetDispCopyYScale
                0x80027884       0x9c /opt/devkitpro/libogc/lib/wii/libogc.a(gx.o)
                0x80027884                GX_SetDispCopyYScale
 .text.GX_SetDispCopyDst
                0x80027920       0x24 /opt/devkitpro/libogc/lib/wii/libogc.a(gx.o)
                0x80027920                GX_SetDispCopyDst
 .text.GX_SetDispCopySrc
                0x80027944       0x38 /opt/devkitpro/libogc/lib/wii/libogc.a(gx.o)
                0x80027944                GX_SetDispCopySrc
 .text.GX_CopyDisp
                0x8002797c      0x138 /opt/devkitpro/libogc/lib/wii/libogc.a(gx.o)
                0x8002797c                GX_CopyDisp
 .text.GX_ClearBoundingBox
                0x80027ab4       0x30 /opt/devkitpro/libogc/lib/wii/libogc.a(gx.o)
                0x80027ab4                GX_ClearBoundingBox
 .text.GX_SetChanCtrl
                0x80027ae4       0xb0 /opt/devkitpro/libogc/lib/wii/libogc.a(gx.o)
                0x80027ae4                GX_SetChanCtrl
 .text.GX_SetChanAmbColor
                0x80027b94      0x160 /opt/devkitpro/libogc/lib/wii/libogc.a(gx.o)
                0x80027b94                GX_SetChanAmbColor
 .text.GX_SetChanMatColor
                0x80027cf4      0x160 /opt/devkitpro/libogc/lib/wii/libogc.a(gx.o)
                0x80027cf4                GX_SetChanMatColor
 .text.GX_SetVtxDesc
                0x80027e54      0x308 /opt/devkitpro/libogc/lib/wii/libogc.a(gx.o)
                0x80027e54                GX_SetVtxDesc
 .text.__SETVCDFMT
                0x8002815c      0x4a0 /opt/devkitpro/libogc/lib/wii/libogc.a(gx.o)
 .text.GX_SetVtxAttrFmt
                0x800285fc       0x54 /opt/devkitpro/libogc/lib/wii/libogc.a(gx.o)
                0x800285fc                GX_SetVtxAttrFmt
 .text.GX_Begin
                0x80028650       0x70 /opt/devkitpro/libogc/lib/wii/libogc.a(gx.o)
                0x80028650                GX_Begin
 .text.GX_End   0x800286c0        0x4 /opt/devkitpro/libogc/lib/wii/libogc.a(gx.o)
                0x800286c0                GX_End
 .text.GX_Position3f32
                0x800286c4       0x18 /opt/devkitpro/libogc/lib/wii/libogc.a(gx.o)
                0x800286c4                GX_Position3f32
 .text.GX_Color4u8
                0x800286dc       0x1c /opt/devkitpro/libogc/lib/wii/libogc.a(gx.o)
                0x800286dc                GX_Color4u8
 .text.GX_SetTexCoordGen2
                0x800286f8      0x2e8 /opt/devkitpro/libogc/lib/wii/libogc.a(gx.o)
                0x800286f8                GX_SetTexCoordGen2
 .text.GX_SetTexCoordGen
                0x800289e0        0xc /opt/devkitpro/libogc/lib/wii/libogc.a(gx.o)
                0x800289e0                GX_SetTexCoordGen
 .text.GX_SetZTexture
                0x800289ec       0x58 /opt/devkitpro/libogc/lib/wii/libogc.a(gx.o)
                0x800289ec                GX_SetZTexture
 .text.GX_LoadPosMtxImm
                0x80028a44       0x50 /opt/devkitpro/libogc/lib/wii/libogc.a(gx.o)
                0x80028a44                GX_LoadPosMtxImm
 .text.GX_LoadNrmMtxImm
                0x80028a94       0x58 /opt/devkitpro/libogc/lib/wii/libogc.a(gx.o)
                0x80028a94                GX_LoadNrmMtxImm
 .text.GX_LoadTexMtxImm
                0x80028aec       0xa0 /opt/devkitpro/libogc/lib/wii/libogc.a(gx.o)
                0x80028aec                GX_LoadTexMtxImm
 .text.GX_SetCurrentMtx
                0x80028b8c       0x2c /opt/devkitpro/libogc/lib/wii/libogc.a(gx.o)
                0x80028b8c                GX_SetCurrentMtx
 .text.GX_SetNumTexGens
                0x80028bb8       0x30 /opt/devkitpro/libogc/lib/wii/libogc.a(gx.o)
                0x80028bb8                GX_SetNumTexGens
 .text.GX_InvVtxCache
                0x80028be8       0x14 /opt/devkitpro/libogc/lib/wii/libogc.a(gx.o)
                0x80028be8                GX_InvVtxCache
 .text.GX_SetZMode
                0x80028bfc       0x48 /opt/devkitpro/libogc/lib/wii/libogc.a(gx.o)
                0x80028bfc                GX_SetZMode
 .text.GX_GetTexFmt
                0x80028c44        0x8 /opt/devkitpro/libogc/lib/wii/libogc.a(gx.o)
                0x80028c44                GX_GetTexFmt
 .text.__GXDefRegionCallback
                0x80028c4c       0x88 /opt/devkitpro/libogc/lib/wii/libogc.a(gx.o)
 .text.GX_InitTexCacheRegion
                0x80028cd4      0x134 /opt/devkitpro/libogc/lib/wii/libogc.a(gx.o)
                0x80028cd4                GX_InitTexCacheRegion
 .text.GX_InitTlutRegion
                0x80028e08       0x18 /opt/devkitpro/libogc/lib/wii/libogc.a(gx.o)
                0x80028e08                GX_InitTlutRegion
 .text.GX_InvalidateTexAll
                0x80028e20       0x54 /opt/devkitpro/libogc/lib/wii/libogc.a(gx.o)
                0x80028e20                GX_InvalidateTexAll
 .text.GX_SetTexRegionCallback
                0x80028e74       0x34 /opt/devkitpro/libogc/lib/wii/libogc.a(gx.o)
                0x80028e74                GX_SetTexRegionCallback
 .text.GX_SetTlutRegionCallback
                0x80028ea8       0x34 /opt/devkitpro/libogc/lib/wii/libogc.a(gx.o)
                0x80028ea8                GX_SetTlutRegionCallback
 .text.GX_SetBlendMode
                0x80028edc      0x120 /opt/devkitpro/libogc/lib/wii/libogc.a(gx.o)
                0x80028edc                GX_SetBlendMode
 .text.GX_ClearVtxDesc
                0x80028ffc       0x38 /opt/devkitpro/libogc/lib/wii/libogc.a(gx.o)
                0x80028ffc                GX_ClearVtxDesc
 .text.GX_SetLineWidth
                0x80029034       0x3c /opt/devkitpro/libogc/lib/wii/libogc.a(gx.o)
                0x80029034                GX_SetLineWidth
 .text.GX_SetPointSize
                0x80029070       0x40 /opt/devkitpro/libogc/lib/wii/libogc.a(gx.o)
                0x80029070                GX_SetPointSize
 .text.GX_SetTevColorIn
                0x800290b0       0x60 /opt/devkitpro/libogc/lib/wii/libogc.a(gx.o)
                0x800290b0                GX_SetTevColorIn
 .text.GX_SetTevAlphaIn
                0x80029110       0x60 /opt/devkitpro/libogc/lib/wii/libogc.a(gx.o)
                0x80029110                GX_SetTevAlphaIn
 .text.GX_SetTevColorOp
                0x80029170       0xdc /opt/devkitpro/libogc/lib/wii/libogc.a(gx.o)
                0x80029170                GX_SetTevColorOp
 .text.GX_SetTevAlphaOp
                0x8002924c       0xdc /opt/devkitpro/libogc/lib/wii/libogc.a(gx.o)
                0x8002924c                GX_SetTevAlphaOp
 .text.GX_SetTevOp
                0x80029328      0x180 /opt/devkitpro/libogc/lib/wii/libogc.a(gx.o)
                0x80029328                GX_SetTevOp
 .text.GX_SetCullMode
                0x800294a8       0x38 /opt/devkitpro/libogc/lib/wii/libogc.a(gx.o)
                0x800294a8                GX_SetCullMode
 .text.GX_SetCoPlanar
                0x800294e0       0x40 /opt/devkitpro/libogc/lib/wii/libogc.a(gx.o)
                0x800294e0                GX_SetCoPlanar
 .text.GX_EnableTexOffsets
                0x80029520       0x4c /opt/devkitpro/libogc/lib/wii/libogc.a(gx.o)
                0x80029520                GX_EnableTexOffsets
 .text.GX_SetClipMode
                0x8002956c       0x24 /opt/devkitpro/libogc/lib/wii/libogc.a(gx.o)
                0x8002956c                GX_SetClipMode
 .text.GX_SetScissor
                0x80029590       0x84 /opt/devkitpro/libogc/lib/wii/libogc.a(gx.o)
                0x80029590                GX_SetScissor
 .text.GX_SetScissorBoxOffset
                0x80029614       0x30 /opt/devkitpro/libogc/lib/wii/libogc.a(gx.o)
                0x80029614                GX_SetScissorBoxOffset
 .text.GX_SetNumChans
                0x80029644       0x30 /opt/devkitpro/libogc/lib/wii/libogc.a(gx.o)
                0x80029644                GX_SetNumChans
 .text.GX_SetTevOrder
                0x80029674      0x1b4 /opt/devkitpro/libogc/lib/wii/libogc.a(gx.o)
                0x80029674                GX_SetTevOrder
 .text.GX_SetNumTevStages
                0x80029828       0x30 /opt/devkitpro/libogc/lib/wii/libogc.a(gx.o)
                0x80029828                GX_SetNumTevStages
 .text.GX_SetAlphaCompare
                0x80029858       0x3c /opt/devkitpro/libogc/lib/wii/libogc.a(gx.o)
                0x80029858                GX_SetAlphaCompare
 .text.GX_SetTevKColorSel
                0x80029894       0x90 /opt/devkitpro/libogc/lib/wii/libogc.a(gx.o)
                0x80029894                GX_SetTevKColorSel
 .text.GX_SetTevKAlphaSel
                0x80029924       0x90 /opt/devkitpro/libogc/lib/wii/libogc.a(gx.o)
                0x80029924                GX_SetTevKAlphaSel
 .text.GX_SetTevSwapMode
                0x800299b4       0x4c /opt/devkitpro/libogc/lib/wii/libogc.a(gx.o)
                0x800299b4                GX_SetTevSwapMode
 .text.GX_SetTevSwapModeTable
                0x80029a00       0x7c /opt/devkitpro/libogc/lib/wii/libogc.a(gx.o)
                0x80029a00                GX_SetTevSwapModeTable
 .text.GX_SetTevIndirect
                0x80029a7c       0x70 /opt/devkitpro/libogc/lib/wii/libogc.a(gx.o)
                0x80029a7c                GX_SetTevIndirect
 .text.GX_SetTevDirect
                0x80029aec       0x48 /opt/devkitpro/libogc/lib/wii/libogc.a(gx.o)
                0x80029aec                GX_SetTevDirect
 .text.GX_SetNumIndStages
                0x80029b34       0x2c /opt/devkitpro/libogc/lib/wii/libogc.a(gx.o)
                0x80029b34                GX_SetNumIndStages
 .text.GX_SetIndTexCoordScale
                0x80029b60      0x110 /opt/devkitpro/libogc/lib/wii/libogc.a(gx.o)
                0x80029b60                GX_SetIndTexCoordScale
 .text.GX_SetFog
                0x80029c70      0x210 /opt/devkitpro/libogc/lib/wii/libogc.a(gx.o)
                0x80029c70                GX_SetFog
 .text.GX_SetFogRangeAdj
                0x80029e80       0x20 /opt/devkitpro/libogc/lib/wii/libogc.a(gx.o)
                0x80029e80                GX_SetFogRangeAdj
 .text.GX_SetColorUpdate
                0x80029ea0       0x34 /opt/devkitpro/libogc/lib/wii/libogc.a(gx.o)
                0x80029ea0                GX_SetColorUpdate
 .text.GX_SetAlphaUpdate
                0x80029ed4       0x34 /opt/devkitpro/libogc/lib/wii/libogc.a(gx.o)
                0x80029ed4                GX_SetAlphaUpdate
 .text.GX_SetZCompLoc
                0x80029f08       0x34 /opt/devkitpro/libogc/lib/wii/libogc.a(gx.o)
                0x80029f08                GX_SetZCompLoc
 .text.GX_SetPixelFmt
                0x80029f3c       0xf0 /opt/devkitpro/libogc/lib/wii/libogc.a(gx.o)
                0x80029f3c                GX_SetPixelFmt
 .text.GX_SetDither
                0x8002a02c       0x34 /opt/devkitpro/libogc/lib/wii/libogc.a(gx.o)
                0x8002a02c                GX_SetDither
 .text.GX_SetDstAlpha
                0x8002a060       0x38 /opt/devkitpro/libogc/lib/wii/libogc.a(gx.o)
                0x8002a060                GX_SetDstAlpha
 .text.GX_SetFieldMask
                0x8002a098       0x28 /opt/devkitpro/libogc/lib/wii/libogc.a(gx.o)
                0x8002a098                GX_SetFieldMask
 .text.GX_SetFieldMode
                0x8002a0c0       0x7c /opt/devkitpro/libogc/lib/wii/libogc.a(gx.o)
                0x8002a0c0                GX_SetFieldMode
 .text.GX_PokeAlphaMode
                0x8002a13c       0x18 /opt/devkitpro/libogc/lib/wii/libogc.a(gx.o)
                0x8002a13c                GX_PokeAlphaMode
 .text.GX_PokeAlphaRead
                0x8002a154       0x14 /opt/devkitpro/libogc/lib/wii/libogc.a(gx.o)
                0x8002a154                GX_PokeAlphaRead
 .text.GX_PokeDstAlpha
                0x8002a168       0x18 /opt/devkitpro/libogc/lib/wii/libogc.a(gx.o)
                0x8002a168                GX_PokeDstAlpha
 .text.GX_PokeAlphaUpdate
                0x8002a180       0x20 /opt/devkitpro/libogc/lib/wii/libogc.a(gx.o)
                0x8002a180                GX_PokeAlphaUpdate
 .text.GX_PokeColorUpdate
                0x8002a1a0       0x20 /opt/devkitpro/libogc/lib/wii/libogc.a(gx.o)
                0x8002a1a0                GX_PokeColorUpdate
 .text.GX_PokeDither
                0x8002a1c0       0x20 /opt/devkitpro/libogc/lib/wii/libogc.a(gx.o)
                0x8002a1c0                GX_PokeDither
 .text.GX_PokeBlendMode
                0x8002a1e0       0xc4 /opt/devkitpro/libogc/lib/wii/libogc.a(gx.o)
                0x8002a1e0                GX_PokeBlendMode
 .text.GX_PokeZMode
                0x8002a2a4       0x18 /opt/devkitpro/libogc/lib/wii/libogc.a(gx.o)
                0x8002a2a4                GX_PokeZMode
 .text.GX_SetGPMetric
                0x8002a2bc      0x84c /opt/devkitpro/libogc/lib/wii/libogc.a(gx.o)
                0x8002a2bc                GX_SetGPMetric
 .text.GX_ClearGPMetric
                0x8002ab08       0x14 /opt/devkitpro/libogc/lib/wii/libogc.a(gx.o)
                0x8002ab08                GX_ClearGPMetric
 .text.GX_GetYScaleFactor
                0x8002ab1c      0x250 /opt/devkitpro/libogc/lib/wii/libogc.a(gx.o)
                0x8002ab1c                GX_GetYScaleFactor
 .text.GX_DrawDone
                0x8002ad6c       0xb8 /opt/devkitpro/libogc/lib/wii/libogc.a(gx.o)
                0x8002ad6c                GX_DrawDone
 .text.__GX_WaitAbort
                0x8002ae24       0xd0 /opt/devkitpro/libogc/lib/wii/libogc.a(gx.o)
 .text.GX_AbortFrame
                0x8002aef4      0x268 /opt/devkitpro/libogc/lib/wii/libogc.a(gx.o)
                0x8002aef4                GX_AbortFrame
 .text.__gx_onreset
                0x8002b15c       0x30 /opt/devkitpro/libogc/lib/wii/libogc.a(gx.o)
 .text.__GXCPInterruptHandler
                0x8002b18c      0x17c /opt/devkitpro/libogc/lib/wii/libogc.a(gx.o)
 .text.__GXFinishInterruptHandler
                0x8002b308       0x60 /opt/devkitpro/libogc/lib/wii/libogc.a(gx.o)
 .text.GX_Init  0x8002b368      0xdf0 /opt/devkitpro/libogc/lib/wii/libogc.a(gx.o)
                0x8002b368                GX_Init
 .text.guOrtho  0x8002c158       0xa0 /opt/devkitpro/libogc/lib/wii/libogc.a(gu.o)
                0x8002c158                guOrtho
 .text.__decrementer_init
                0x8002c1f8        0x4 /opt/devkitpro/libogc/lib/wii/libogc.a(decrementer.o)
                0x8002c1f8                __decrementer_init
 .text.c_decrementer_handler
                0x8002c1fc       0x28 /opt/devkitpro/libogc/lib/wii/libogc.a(decrementer.o)
                0x8002c1fc                c_decrementer_handler
 .text.__lwp_mqbox_init
                0x8002c224       0x30 /opt/devkitpro/libogc/lib/wii/libogc.a(message.o)
                0x8002c224                __lwp_mqbox_init
 .text.__si_transfer
                0x8002c254      0x138 /opt/devkitpro/libogc/lib/wii/libogc.a(si.o)
 .text.__si_alarmhandler
                0x8002c38c       0xb4 /opt/devkitpro/libogc/lib/wii/libogc.a(si.o)
 .text.__si_calltypandstatuscallback
                0x8002c440       0x8c /opt/devkitpro/libogc/lib/wii/libogc.a(si.o)
 .text.SI_IsChanBusy
                0x8002c4cc       0x38 /opt/devkitpro/libogc/lib/wii/libogc.a(si.o)
                0x8002c4cc                SI_IsChanBusy
 .text.SI_SetXY
                0x8002c504       0x54 /opt/devkitpro/libogc/lib/wii/libogc.a(si.o)
                0x8002c504                SI_SetXY
 .text.SI_DisablePolling
                0x8002c558       0x48 /opt/devkitpro/libogc/lib/wii/libogc.a(si.o)
                0x8002c558                SI_DisablePolling
 .text.SI_GetStatus
                0x8002c5a0       0x68 /opt/devkitpro/libogc/lib/wii/libogc.a(si.o)
                0x8002c5a0                SI_GetStatus
 .text.SI_GetResponseRaw
                0x8002c608       0x78 /opt/devkitpro/libogc/lib/wii/libogc.a(si.o)
                0x8002c608                SI_GetResponseRaw
 .text.SI_GetResponse
                0x8002c680       0xa4 /opt/devkitpro/libogc/lib/wii/libogc.a(si.o)
                0x8002c680                SI_GetResponse
 .text.SI_SetCommand
                0x8002c724       0x10 /opt/devkitpro/libogc/lib/wii/libogc.a(si.o)
                0x8002c724                SI_SetCommand
 .text.SI_TransferCommands
                0x8002c734       0x14 /opt/devkitpro/libogc/lib/wii/libogc.a(si.o)
                0x8002c734                SI_TransferCommands
 .text.SI_EnablePolling
                0x8002c748       0x88 /opt/devkitpro/libogc/lib/wii/libogc.a(si.o)
                0x8002c748                SI_EnablePolling
 .text.__si_completetransfer
                0x8002c7d0      0x1a8 /opt/devkitpro/libogc/lib/wii/libogc.a(si.o)
 .text.__si_transfernext
                0x8002c978       0xe0 /opt/devkitpro/libogc/lib/wii/libogc.a(si.o)
 .text.SI_Transfer
                0x8002ca58      0x1f4 /opt/devkitpro/libogc/lib/wii/libogc.a(si.o)
                0x8002ca58                SI_Transfer
 .text.SI_GetType
                0x8002cc4c      0x1e4 /opt/devkitpro/libogc/lib/wii/libogc.a(si.o)
                0x8002cc4c                SI_GetType
 .text.SI_GetTypeAsync
                0x8002ce30      0x10c /opt/devkitpro/libogc/lib/wii/libogc.a(si.o)
                0x8002ce30                SI_GetTypeAsync
 .text.__si_interrupthandler
                0x8002cf3c      0x24c /opt/devkitpro/libogc/lib/wii/libogc.a(si.o)
 .text.__si_gettypecallback
                0x8002d188      0x268 /opt/devkitpro/libogc/lib/wii/libogc.a(si.o)
 .text.SI_SetSamplingRate
                0x8002d3f0       0xe0 /opt/devkitpro/libogc/lib/wii/libogc.a(si.o)
                0x8002d3f0                SI_SetSamplingRate
 .text.__si_init
                0x8002d4d0       0xf8 /opt/devkitpro/libogc/lib/wii/libogc.a(si.o)
                0x8002d4d0                __si_init
 .text.SI_RefreshSamplingRate
                0x8002d5c8        0xc /opt/devkitpro/libogc/lib/wii/libogc.a(si.o)
                0x8002d5c8                SI_RefreshSamplingRate
 .text.__ipc_sendrequest
                0x8002d5d4       0xb4 /opt/devkitpro/libogc/lib/wii/libogc.a(ipc.o)
 .text.IPC_GetBufferLo
                0x8002d688        0xc /opt/devkitpro/libogc/lib/wii/libogc.a(ipc.o)
                0x8002d688                IPC_GetBufferLo
 .text.IPC_GetBufferHi
                0x8002d694        0xc /opt/devkitpro/libogc/lib/wii/libogc.a(ipc.o)
                0x8002d694                IPC_GetBufferHi
 .text.IPC_SetBufferLo
                0x8002d6a0       0x1c /opt/devkitpro/libogc/lib/wii/libogc.a(ipc.o)
                0x8002d6a0                IPC_SetBufferLo
 .text.__ipc_syncrequest
                0x8002d6bc       0xdc /opt/devkitpro/libogc/lib/wii/libogc.a(ipc.o)
 .text.iosAlloc
                0x8002d798       0x4c /opt/devkitpro/libogc/lib/wii/libogc.a(ipc.o)
                0x8002d798                iosAlloc
 .text.iosFree  0x8002d7e4       0x44 /opt/devkitpro/libogc/lib/wii/libogc.a(ipc.o)
                0x8002d7e4                iosFree
 .text.__ios_ioctlvformat_parse
                0x8002d828      0x780 /opt/devkitpro/libogc/lib/wii/libogc.a(ipc.o)
 .text.__ioctlvfmtCB
                0x8002dfa8      0x110 /opt/devkitpro/libogc/lib/wii/libogc.a(ipc.o)
 .text.__IPC_Init
                0x8002e0b8       0x64 /opt/devkitpro/libogc/lib/wii/libogc.a(ipc.o)
                0x8002e0b8                __IPC_Init
 .text.iosCreateHeap
                0x8002e11c      0x130 /opt/devkitpro/libogc/lib/wii/libogc.a(ipc.o)
                0x8002e11c                iosCreateHeap
 .text.__IPC_ClntInit
                0x8002e24c       0x78 /opt/devkitpro/libogc/lib/wii/libogc.a(ipc.o)
                0x8002e24c                __IPC_ClntInit
 .text.__ipc_interrupthandler
                0x8002e2c4      0x320 /opt/devkitpro/libogc/lib/wii/libogc.a(ipc.o)
 .text.__ipc_asyncrequest
                0x8002e5e4       0xdc /opt/devkitpro/libogc/lib/wii/libogc.a(ipc.o)
 .text.IOS_CloseAsync
                0x8002e6c0       0x94 /opt/devkitpro/libogc/lib/wii/libogc.a(ipc.o)
                0x8002e6c0                IOS_CloseAsync
 .text.IOS_Open
                0x8002e754       0xc8 /opt/devkitpro/libogc/lib/wii/libogc.a(ipc.o)
                0x8002e754                IOS_Open
 .text.IOS_Close
                0x8002e81c       0x8c /opt/devkitpro/libogc/lib/wii/libogc.a(ipc.o)
                0x8002e81c                IOS_Close
 .text.IOS_IoctlvReboot
                0x8002e8a8      0x1a0 /opt/devkitpro/libogc/lib/wii/libogc.a(ipc.o)
                0x8002e8a8                IOS_IoctlvReboot
 .text.IOS_IoctlvAsync
                0x8002ea48      0x1c0 /opt/devkitpro/libogc/lib/wii/libogc.a(ipc.o)
                0x8002ea48                IOS_IoctlvAsync
 .text.IOS_Ioctlv
                0x8002ec08      0x19c /opt/devkitpro/libogc/lib/wii/libogc.a(ipc.o)
                0x8002ec08                IOS_Ioctlv
 .text.IOS_IoctlvFormat
                0x8002eda4      0x164 /opt/devkitpro/libogc/lib/wii/libogc.a(ipc.o)
                0x8002eda4                IOS_IoctlvFormat
 .text.IOS_IoctlAsync
                0x8002ef08      0x128 /opt/devkitpro/libogc/lib/wii/libogc.a(ipc.o)
                0x8002ef08                IOS_IoctlAsync
 .text.IOS_Ioctl
                0x8002f030      0x100 /opt/devkitpro/libogc/lib/wii/libogc.a(ipc.o)
                0x8002f030                IOS_Ioctl
 .text.IOS_Read
                0x8002f130       0xc0 /opt/devkitpro/libogc/lib/wii/libogc.a(ipc.o)
                0x8002f130                IOS_Read
 .text.gettick  0x8002f1f0       0x10 /opt/devkitpro/libogc/lib/wii/libogc.a(timesupp.o)
                0x8002f1f0                gettick
 .text.gettime  0x8002f200       0x24 /opt/devkitpro/libogc/lib/wii/libogc.a(timesupp.o)
                0x8002f200                gettime
 .text.diff_usec
                0x8002f224       0x9c /opt/devkitpro/libogc/lib/wii/libogc.a(timesupp.o)
                0x8002f224                diff_usec
 .text.udelay   0x8002f2c0       0x64 /opt/devkitpro/libogc/lib/wii/libogc.a(timesupp.o)
                0x8002f2c0                udelay
 .text.__timesystem_init
                0x8002f324       0x40 /opt/devkitpro/libogc/lib/wii/libogc.a(timesupp.o)
                0x8002f324                __timesystem_init
 .text.__libogc_lock_release
                0x8002f364       0x48 /opt/devkitpro/libogc/lib/wii/libogc.a(lock_supp.o)
                0x8002f364                __libogc_lock_release
 .text.__libogc_lock_acquire
                0x8002f3ac       0x48 /opt/devkitpro/libogc/lib/wii/libogc.a(lock_supp.o)
                0x8002f3ac                __libogc_lock_acquire
 .text.__libogc_lock_close
                0x8002f3f4       0x5c /opt/devkitpro/libogc/lib/wii/libogc.a(lock_supp.o)
                0x8002f3f4                __libogc_lock_close
 .text.__libogc_lock_init
                0x8002f450       0x54 /opt/devkitpro/libogc/lib/wii/libogc.a(lock_supp.o)
                0x8002f450                __libogc_lock_init
 .text.__libc_create_hook
                0x8002f4a4       0x10 /opt/devkitpro/libogc/lib/wii/libogc.a(newlibc.o)
                0x8002f4a4                __libc_create_hook
 .text.__libc_init
                0x8002f4b4      0x178 /opt/devkitpro/libogc/lib/wii/libogc.a(newlibc.o)
                0x8002f4b4                __libc_init
 .text.__libc_delete_hook
                0x8002f62c       0xbc /opt/devkitpro/libogc/lib/wii/libogc.a(newlibc.o)
                0x8002f62c                __libc_delete_hook
 .text.__libc_start_hook
                0x8002f6e8      0x1c0 /opt/devkitpro/libogc/lib/wii/libogc.a(newlibc.o)
                0x8002f6e8                __libc_start_hook
 .text.__libogc_sbrk_r
                0x8002f8a8       0xb8 /opt/devkitpro/libogc/lib/wii/libogc.a(sbrk.o)
                0x8002f8a8                __libogc_sbrk_r
 .text.__libogc_malloc_lock
                0x8002f960      0x1a8 /opt/devkitpro/libogc/lib/wii/libogc.a(malloc_lock.o)
                0x8002f960                __libogc_malloc_lock
 .text.__libogc_malloc_unlock
                0x8002fb08       0x70 /opt/devkitpro/libogc/lib/wii/libogc.a(malloc_lock.o)
                0x8002fb08                __libogc_malloc_unlock
 .text.__memlock_init
                0x8002fb78       0x84 /opt/devkitpro/libogc/lib/wii/libogc.a(malloc_lock.o)
                0x8002fb78                __memlock_init
 .text.STM_RegisterEventHandler
                0x8002fbfc       0x14 /opt/devkitpro/libogc/lib/wii/libogc.a(stm.o)
                0x8002fbfc                STM_RegisterEventHandler
 .text.STM_RebootSystem
                0x8002fc10       0x60 /opt/devkitpro/libogc/lib/wii/libogc.a(stm.o)
                0x8002fc10                STM_RebootSystem
 .text.STM_SetLedMode
                0x8002fc70       0x60 /opt/devkitpro/libogc/lib/wii/libogc.a(stm.o)
                0x8002fc70                STM_SetLedMode
 .text.STM_ShutdownToStandby
                0x8002fcd0       0x60 /opt/devkitpro/libogc/lib/wii/libogc.a(stm.o)
                0x8002fcd0                STM_ShutdownToStandby
 .text.__STM_ReleaseEventHook
                0x8002fd30       0x94 /opt/devkitpro/libogc/lib/wii/libogc.a(stm.o)
                0x8002fd30                __STM_ReleaseEventHook
 .text.STM_ShutdownToIdle
                0x8002fdc4       0x8c /opt/devkitpro/libogc/lib/wii/libogc.a(stm.o)
                0x8002fdc4                STM_ShutdownToIdle
 .text.__STM_SetEventHook
                0x8002fe50       0xd8 /opt/devkitpro/libogc/lib/wii/libogc.a(stm.o)
                0x8002fe50                __STM_SetEventHook
 .text.__STMEventHandler
                0x8002ff28       0x6c /opt/devkitpro/libogc/lib/wii/libogc.a(stm.o)
 .text.__STM_Close
                0x8002ff94       0x9c /opt/devkitpro/libogc/lib/wii/libogc.a(stm.o)
                0x8002ff94                __STM_Close
 .text.__STM_Init
                0x80030030       0xac /opt/devkitpro/libogc/lib/wii/libogc.a(stm.o)
                0x80030030                __STM_Init
 .text.IOS_GetVersion
                0x800300dc       0x54 /opt/devkitpro/libogc/lib/wii/libogc.a(ios.o)
                0x800300dc                IOS_GetVersion
 .text.__IOS_LaunchNewIOS
                0x80030130       0xf0 /opt/devkitpro/libogc/lib/wii/libogc.a(ios.o)
                0x80030130                __IOS_LaunchNewIOS
 .text.__IOS_ShutdownSubsystems
                0x80030220       0x48 /opt/devkitpro/libogc/lib/wii/libogc.a(ios.o)
                0x80030220                __IOS_ShutdownSubsystems
 .text.__IOS_InitializeSubsystems
                0x80030268       0x48 /opt/devkitpro/libogc/lib/wii/libogc.a(ios.o)
                0x80030268                __IOS_InitializeSubsystems
 .text.__IOS_InitHeap
                0x800302b0       0x70 /opt/devkitpro/libogc/lib/wii/libogc.a(ios.o)
                0x800302b0                __IOS_InitHeap
 .text.IOS_GetPreferredVersion
                0x80030320      0x100 /opt/devkitpro/libogc/lib/wii/libogc.a(ios.o)
                0x80030320                IOS_GetPreferredVersion
 .text.__IOS_LoadStartupIOS
                0x80030420       0x6c /opt/devkitpro/libogc/lib/wii/libogc.a(ios.o)
                0x80030420                __IOS_LoadStartupIOS
 .text.__ES_Reset
                0x8003048c       0x14 /opt/devkitpro/libogc/lib/wii/libogc.a(es.o)
                0x8003048c                __ES_Reset
 .text.ES_GetTitles
                0x800304a0       0x90 /opt/devkitpro/libogc/lib/wii/libogc.a(es.o)
                0x800304a0                ES_GetTitles
 .text.ES_GetNumTitles
                0x80030530       0x7c /opt/devkitpro/libogc/lib/wii/libogc.a(es.o)
                0x80030530                ES_GetNumTitles
 .text.ES_GetTicketViews
                0x800305ac       0xa0 /opt/devkitpro/libogc/lib/wii/libogc.a(es.o)
                0x800305ac                ES_GetTicketViews
 .text.ES_GetNumTicketViews
                0x8003064c       0x88 /opt/devkitpro/libogc/lib/wii/libogc.a(es.o)
                0x8003064c                ES_GetNumTicketViews
 .text.ES_LaunchTitle
                0x800306d4       0xb0 /opt/devkitpro/libogc/lib/wii/libogc.a(es.o)
                0x800306d4                ES_LaunchTitle
 .text.__ES_Close
                0x80030784       0x74 /opt/devkitpro/libogc/lib/wii/libogc.a(es.o)
                0x80030784                __ES_Close
 .text.__ES_Init
                0x800307f8       0x70 /opt/devkitpro/libogc/lib/wii/libogc.a(es.o)
                0x800307f8                __ES_Init
 .text.__usb_bulk_messageCB
                0x80030868       0xc8 /opt/devkitpro/libogc/lib/wii/libogc.a(usb.o)
 .text.__usb_control_messageCB
                0x80030930      0x118 /opt/devkitpro/libogc/lib/wii/libogc.a(usb.o)
 .text.USB_CloseDeviceAsync
                0x80030a48       0x48 /opt/devkitpro/libogc/lib/wii/libogc.a(usb.o)
                0x80030a48                USB_CloseDeviceAsync
 .text.USB_OpenDevice
                0x80030a90       0xd4 /opt/devkitpro/libogc/lib/wii/libogc.a(usb.o)
                0x80030a90                USB_OpenDevice
 .text.USB_Initialize
                0x80030b64       0x40 /opt/devkitpro/libogc/lib/wii/libogc.a(usb.o)
                0x80030b64                USB_Initialize
 .text.USB_WriteBlkMsgAsync
                0x80030ba4      0x1f4 /opt/devkitpro/libogc/lib/wii/libogc.a(usb.o)
                0x80030ba4                USB_WriteBlkMsgAsync
 .text.USB_ReadBlkMsgAsync
                0x80030d98      0x1f4 /opt/devkitpro/libogc/lib/wii/libogc.a(usb.o)
                0x80030d98                USB_ReadBlkMsgAsync
 .text.USB_ReadIntrMsgAsync
                0x80030f8c      0x1f4 /opt/devkitpro/libogc/lib/wii/libogc.a(usb.o)
                0x80030f8c                USB_ReadIntrMsgAsync
 .text.USB_WriteCtrlMsgAsync
                0x80031180      0x384 /opt/devkitpro/libogc/lib/wii/libogc.a(usb.o)
                0x80031180                USB_WriteCtrlMsgAsync
 .text.__CheckARGV
                0x80031504       0x9c /opt/devkitpro/libogc/lib/wii/libogc.a(argv.o)
                0x80031504                __CheckARGV
 .text.__CONF_DecryptTextBuffer
                0x800315a0       0x48 /opt/devkitpro/libogc/lib/wii/libogc.a(conf.o)
                0x800315a0                __CONF_DecryptTextBuffer
 .text.__CONF_Find
                0x800315e8      0x118 /opt/devkitpro/libogc/lib/wii/libogc.a(conf.o)
                0x800315e8                __CONF_Find
 .text.CONF_GetLength
                0x80031700       0xd4 /opt/devkitpro/libogc/lib/wii/libogc.a(conf.o)
                0x80031700                CONF_GetLength
 .text.CONF_Get
                0x800317d4      0x13c /opt/devkitpro/libogc/lib/wii/libogc.a(conf.o)
                0x800317d4                CONF_Get
 .text.CONF_GetPadDevices
                0x80031910       0xe8 /opt/devkitpro/libogc/lib/wii/libogc.a(conf.o)
                0x80031910                CONF_GetPadDevices
 .text.CONF_GetSensorBarPosition
                0x800319f8       0x58 /opt/devkitpro/libogc/lib/wii/libogc.a(conf.o)
                0x800319f8                CONF_GetSensorBarPosition
 .text.CONF_GetIRSensitivity
                0x80031a50       0x58 /opt/devkitpro/libogc/lib/wii/libogc.a(conf.o)
                0x80031a50                CONF_GetIRSensitivity
 .text.CONF_GetEuRGB60
                0x80031aa8       0x58 /opt/devkitpro/libogc/lib/wii/libogc.a(conf.o)
                0x80031aa8                CONF_GetEuRGB60
 .text.CONF_GetProgressiveScan
                0x80031b00       0x58 /opt/devkitpro/libogc/lib/wii/libogc.a(conf.o)
                0x80031b00                CONF_GetProgressiveScan
 .text.CONF_GetIdleLedMode
                0x80031b58       0x5c /opt/devkitpro/libogc/lib/wii/libogc.a(conf.o)
                0x80031b58                CONF_GetIdleLedMode
 .text.CONF_GetShutdownMode
                0x80031bb4       0x5c /opt/devkitpro/libogc/lib/wii/libogc.a(conf.o)
                0x80031bb4                CONF_GetShutdownMode
 .text.__CONF_GetTxt
                0x80031c10      0x19c /opt/devkitpro/libogc/lib/wii/libogc.a(conf.o)
                0x80031c10                __CONF_GetTxt
 .text.CONF_GetVideo
                0x80031dac       0xac /opt/devkitpro/libogc/lib/wii/libogc.a(conf.o)
                0x80031dac                CONF_GetVideo
 .text.CONF_Init
                0x80031e58      0x138 /opt/devkitpro/libogc/lib/wii/libogc.a(conf.o)
                0x80031e58                CONF_Init
 .text.__lwp_priority_init
                0x80031f90       0x34 /opt/devkitpro/libogc/lib/wii/libogc.a(lwp_priority.o)
                0x80031f90                __lwp_priority_init
 .text.__lwp_threadqueue_extractpriority
                0x80031fc4      0x134 /opt/devkitpro/libogc/lib/wii/libogc.a(lwp_threadq.o)
                0x80031fc4                __lwp_threadqueue_extractpriority
 .text.__lwp_threadqueue_extractfifo
                0x800320f8       0xb8 /opt/devkitpro/libogc/lib/wii/libogc.a(lwp_threadq.o)
                0x800320f8                __lwp_threadqueue_extractfifo
 .text.__lwp_threadqueue_extract
                0x800321b0       0x1c /opt/devkitpro/libogc/lib/wii/libogc.a(lwp_threadq.o)
                0x800321b0                __lwp_threadqueue_extract
 .text.__lwp_threadqueue_extractproxy
                0x800321cc       0x3c /opt/devkitpro/libogc/lib/wii/libogc.a(lwp_threadq.o)
                0x800321cc                __lwp_threadqueue_extractproxy
 .text.__lwp_threadqueue_timeout
                0x80032208       0x8c /opt/devkitpro/libogc/lib/wii/libogc.a(lwp_threadq.o)
 .text.__lwp_threadqueue_dequeuepriority
                0x80032294      0x1b8 /opt/devkitpro/libogc/lib/wii/libogc.a(lwp_threadq.o)
                0x80032294                __lwp_threadqueue_dequeuepriority
 .text.__lwp_threadqueue_enqueuepriority
                0x8003244c      0x30c /opt/devkitpro/libogc/lib/wii/libogc.a(lwp_threadq.o)
                0x8003244c                __lwp_threadqueue_enqueuepriority
 .text.__lwp_threadqueue_dequeuefifo
                0x80032758      0x108 /opt/devkitpro/libogc/lib/wii/libogc.a(lwp_threadq.o)
                0x80032758                __lwp_threadqueue_dequeuefifo
 .text.__lwp_threadqueue_dequeue
                0x80032860       0x24 /opt/devkitpro/libogc/lib/wii/libogc.a(lwp_threadq.o)
                0x80032860                __lwp_threadqueue_dequeue
 .text.__lwp_threadqueue_flush
                0x80032884       0x4c /opt/devkitpro/libogc/lib/wii/libogc.a(lwp_threadq.o)
                0x80032884                __lwp_threadqueue_flush
 .text.__lwp_threadqueue_enqueuefifo
                0x800328d0       0xe8 /opt/devkitpro/libogc/lib/wii/libogc.a(lwp_threadq.o)
                0x800328d0                __lwp_threadqueue_enqueuefifo
 .text.__lwp_threadqueue_enqueue
                0x800329b8      0x13c /opt/devkitpro/libogc/lib/wii/libogc.a(lwp_threadq.o)
                0x800329b8                __lwp_threadqueue_enqueue
 .text.__lwp_threadqueue_init
                0x80032af4       0x88 /opt/devkitpro/libogc/lib/wii/libogc.a(lwp_threadq.o)
                0x80032af4                __lwp_threadqueue_init
 .text.__lwp_mutex_flush
                0x80032b7c       0x20 /opt/devkitpro/libogc/lib/wii/libogc.a(lwp_mutex.o)
                0x80032b7c                __lwp_mutex_flush
 .text.__lwp_mutex_initialize
                0x80032b9c       0xe8 /opt/devkitpro/libogc/lib/wii/libogc.a(lwp_mutex.o)
                0x80032b9c                __lwp_mutex_initialize
 .text.__lwp_mutex_seize_irq_blocking
                0x80032c84       0xec /opt/devkitpro/libogc/lib/wii/libogc.a(lwp_mutex.o)
                0x80032c84                __lwp_mutex_seize_irq_blocking
 .text.__lwp_mutex_surrender
                0x80032d70      0x150 /opt/devkitpro/libogc/lib/wii/libogc.a(lwp_mutex.o)
                0x80032d70                __lwp_mutex_surrender
 .text.__exception_sethandler
                0x80032ec0       0x14 /opt/devkitpro/libogc/lib/wii/libogc.a(exception.o)
                0x80032ec0                __exception_sethandler
 .text.__libogc_exit
                0x80032ed4       0x38 /opt/devkitpro/libogc/lib/wii/libogc.a(exception.o)
                0x80032ed4                __libogc_exit
 .text.c_default_exceptionhandler
                0x80032f0c      0x3c0 /opt/devkitpro/libogc/lib/wii/libogc.a(exception.o)
                0x80032f0c                c_default_exceptionhandler
 .text.__exception_load
                0x800332cc       0xa4 /opt/devkitpro/libogc/lib/wii/libogc.a(exception.o)
                0x800332cc                __exception_load
 .text.__exception_init
                0x80033370       0xf4 /opt/devkitpro/libogc/lib/wii/libogc.a(exception.o)
                0x80033370                __exception_init
 .text.__systemcall_init
                0x80033464       0x20 /opt/devkitpro/libogc/lib/wii/libogc.a(exception.o)
                0x80033464                __systemcall_init
 .text.__lwp_sema_init
                0x80033484       0x30 /opt/devkitpro/libogc/lib/wii/libogc.a(semaphore.o)
                0x80033484                __lwp_sema_init
 .text.__PADDisableRecalibration
                0x800334b4       0x50 /opt/devkitpro/libogc/lib/wii/libogc.a(pad.o)
                0x800334b4                __PADDisableRecalibration
 .text.PAD_ButtonsDown
                0x80033504       0x34 /opt/devkitpro/libogc/lib/wii/libogc.a(pad.o)
                0x80033504                PAD_ButtonsDown
 .text.__pad_updateorigin
                0x80033538       0xa4 /opt/devkitpro/libogc/lib/wii/libogc.a(pad.o)
 .text.__pad_doreset
                0x800335dc       0x74 /opt/devkitpro/libogc/lib/wii/libogc.a(pad.o)
 .text.PAD_Reset
                0x80033650      0x100 /opt/devkitpro/libogc/lib/wii/libogc.a(pad.o)
                0x80033650                PAD_Reset
 .text.__pad_enable
                0x80033750       0x68 /opt/devkitpro/libogc/lib/wii/libogc.a(pad.o)
 .text.__pad_typeandstatuscallback
                0x800337b8      0x194 /opt/devkitpro/libogc/lib/wii/libogc.a(pad.o)
 .text.__pad_origincallback
                0x8003394c       0x40 /opt/devkitpro/libogc/lib/wii/libogc.a(pad.o)
 .text.__pad_probecallback
                0x8003398c       0x54 /opt/devkitpro/libogc/lib/wii/libogc.a(pad.o)
 .text.__pad_disable
                0x800339e0       0xb8 /opt/devkitpro/libogc/lib/wii/libogc.a(pad.o)
 .text.PAD_Read
                0x80033a98      0x2e0 /opt/devkitpro/libogc/lib/wii/libogc.a(pad.o)
                0x80033a98                PAD_Read
 .text.PAD_ScanPads
                0x80033d78      0x190 /opt/devkitpro/libogc/lib/wii/libogc.a(pad.o)
                0x80033d78                PAD_ScanPads
 .text.__pad_receivecheckcallback
                0x80033f08       0xc0 /opt/devkitpro/libogc/lib/wii/libogc.a(pad.o)
 .text.__pad_originupdatecallback
                0x80033fc8       0x88 /opt/devkitpro/libogc/lib/wii/libogc.a(pad.o)
 .text.EXI_Sync
                0x80034050       0xc4 /opt/devkitpro/libogc/lib/wii/libogc.a(exi.o)
                0x80034050                EXI_Sync
 .text.__exi_irq_handler
                0x80034114       0x74 /opt/devkitpro/libogc/lib/wii/libogc.a(exi.o)
 .text.EXI_Detach
                0x80034188       0x9c /opt/devkitpro/libogc/lib/wii/libogc.a(exi.o)
                0x80034188                EXI_Detach
 .text.__exi_probe
                0x80034224      0x204 /opt/devkitpro/libogc/lib/wii/libogc.a(exi.o)
 .text.EXI_Select
                0x80034428      0x190 /opt/devkitpro/libogc/lib/wii/libogc.a(exi.o)
                0x80034428                EXI_Select
 .text.EXI_Imm  0x800345b8      0x18c /opt/devkitpro/libogc/lib/wii/libogc.a(exi.o)
                0x800345b8                EXI_Imm
 .text.EXI_ImmEx
                0x80034744       0xd4 /opt/devkitpro/libogc/lib/wii/libogc.a(exi.o)
                0x80034744                EXI_ImmEx
 .text.EXI_Deselect
                0x80034818      0x114 /opt/devkitpro/libogc/lib/wii/libogc.a(exi.o)
                0x80034818                EXI_Deselect
 .text.__exi_attach
                0x8003492c       0xf4 /opt/devkitpro/libogc/lib/wii/libogc.a(exi.o)
 .text.EXI_Lock
                0x80034a20      0x1e8 /opt/devkitpro/libogc/lib/wii/libogc.a(exi.o)
                0x80034a20                EXI_Lock
 .text.EXI_Dma  0x80034c08      0x144 /opt/devkitpro/libogc/lib/wii/libogc.a(exi.o)
                0x80034c08                EXI_Dma
 .text.__ext_irq_handler
                0x80034d4c       0xbc /opt/devkitpro/libogc/lib/wii/libogc.a(exi.o)
 .text.__tc_irq_handler
                0x80034e08      0x11c /opt/devkitpro/libogc/lib/wii/libogc.a(exi.o)
 .text.EXI_Unlock
                0x80034f24      0x238 /opt/devkitpro/libogc/lib/wii/libogc.a(exi.o)
                0x80034f24                EXI_Unlock
 .text.EXI_GetID
                0x8003515c      0x238 /opt/devkitpro/libogc/lib/wii/libogc.a(exi.o)
                0x8003515c                EXI_GetID
 .text.EXI_ProbeReset
                0x80035394       0x7c /opt/devkitpro/libogc/lib/wii/libogc.a(exi.o)
                0x80035394                EXI_ProbeReset
 .text.__exi_init
                0x80035410      0x18c /opt/devkitpro/libogc/lib/wii/libogc.a(exi.o)
                0x80035410                __exi_init
 .text.__unlocked_handler
                0x8003559c       0x28 /opt/devkitpro/libogc/lib/wii/libogc.a(exi.o)
 .text.__lwp_mutex_init
                0x800355c4       0x30 /opt/devkitpro/libogc/lib/wii/libogc.a(mutex.o)
                0x800355c4                __lwp_mutex_init
 .text.LWP_MutexDestroy
                0x800355f4      0x108 /opt/devkitpro/libogc/lib/wii/libogc.a(mutex.o)
                0x800355f4                LWP_MutexDestroy
 .text.LWP_MutexUnlock
                0x800356fc       0x90 /opt/devkitpro/libogc/lib/wii/libogc.a(mutex.o)
                0x800356fc                LWP_MutexUnlock
 .text.__lwp_mutex_locksupp
                0x8003578c      0x204 /opt/devkitpro/libogc/lib/wii/libogc.a(mutex.o)
 .text.LWP_MutexLock
                0x80035990        0xc /opt/devkitpro/libogc/lib/wii/libogc.a(mutex.o)
                0x80035990                LWP_MutexLock
 .text.LWP_MutexInit
                0x8003599c      0x150 /opt/devkitpro/libogc/lib/wii/libogc.a(mutex.o)
                0x8003599c                LWP_MutexInit
 .text.skip_atoi
                0x80035aec       0x4c /opt/devkitpro/libogc/lib/wii/libogc.a(kprintf.o)
 .text.number   0x80035b38      0x2c8 /opt/devkitpro/libogc/lib/wii/libogc.a(kprintf.o)
 .text.kvsprintf
                0x80035e00      0x680 /opt/devkitpro/libogc/lib/wii/libogc.a(kprintf.o)
                0x80035e00                kvsprintf
 .text.kprintf  0x80036480       0xac /opt/devkitpro/libogc/lib/wii/libogc.a(kprintf.o)
                0x80036480                kprintf
 .text.__console_clear
                0x8003652c       0x60 /opt/devkitpro/libogc/lib/wii/libogc.a(console.o)
 .text.__console_write
                0x8003658c      0x5f8 /opt/devkitpro/libogc/lib/wii/libogc.a(console.o)
                0x8003658c                __console_write
 .text.__console_init
                0x80036b84       0xf8 /opt/devkitpro/libogc/lib/wii/libogc.a(console.o)
                0x80036b84                __console_init
 *(.stub)
 *(.gnu.warning)
 *(.gnu.linkonce.t.*)
                0x80036c80                . = ALIGN (0x20)
 *fill*         0x80036c7c        0x4 00000000

.fini           0x80036c80       0x20
 *(.fini)
 .fini          0x80036c80        0xc /opt/devkitpro/devkitPPC/lib/gcc/powerpc-gekko/4.2.3/ecrti.o
                0x80036c80                __fini
 .fini          0x80036c8c        0x4 /opt/devkitpro/devkitPPC/lib/gcc/powerpc-gekko/4.2.3/crtbegin.o
 .fini          0x80036c90       0x10 /opt/devkitpro/devkitPPC/lib/gcc/powerpc-gekko/4.2.3/ecrtn.o
                0x80036ca0                . = ALIGN (0x20)
                0x80036ca0                PROVIDE (__etext, .)
                0x80036ca0                PROVIDE (_etext, .)
                0x80036ca0                PROVIDE (etext, .)
                0x00032ca0                text_mem_size = (. - text_mem_start)
                0x80036ca0                data_mem_start = .

.rodata         0x80036ca0     0x3d44
 *(.rodata)
 .rodata        0x80036ca0       0x3a /opt/devkitpro/libogc/lib/wii/libwiiuse.a(ir.o)
 *fill*         0x80036cda        0x2 00
 .rodata        0x80036cdc       0x24 /opt/devkitpro/libogc/lib/wii/libogc.a(newlibc.o)
 .rodata        0x80036d00       0x20 /opt/devkitpro/devkitPPC/lib/gcc/powerpc-gekko/4.2.3/../../../../powerpc-gekko/lib/libm.a(lib_a-s_atangent.o)
 .rodata        0x80036d20       0x10 /opt/devkitpro/devkitPPC/lib/gcc/powerpc-gekko/4.2.3/../../../../powerpc-gekko/lib/libm.a(lib_a-sf_atangent.o)
 .rodata        0x80036d30       0x50 /opt/devkitpro/devkitPPC/lib/gcc/powerpc-gekko/4.2.3/../../../../powerpc-gekko/lib/libsysbase.a(iosupport.o)
                0x80036d30                dotab_stdnull
 .rodata        0x80036d80      0x101 /opt/devkitpro/devkitPPC/lib/gcc/powerpc-gekko/4.2.3/../../../../powerpc-gekko/lib/libc.a(lib_a-ctype_.o)
                0x80036d80                _ctype_
 *fill*         0x80036e81        0x3 00
 .rodata        0x80036e84      0x184 /opt/devkitpro/devkitPPC/lib/gcc/powerpc-gekko/4.2.3/../../../../powerpc-gekko/lib/libc.a(lib_a-vfprintf.o)
 .rodata        0x80037008       0x18 /opt/devkitpro/devkitPPC/lib/gcc/powerpc-gekko/4.2.3/../../../../powerpc-gekko/lib/libc.a(lib_a-dtoa.o)
 .rodata        0x80037020       0xb8 /opt/devkitpro/devkitPPC/lib/gcc/powerpc-gekko/4.2.3/../../../../powerpc-gekko/lib/libc.a(lib_a-locale.o)
 .rodata        0x800370d8       0xa8 /opt/devkitpro/devkitPPC/lib/gcc/powerpc-gekko/4.2.3/../../../../powerpc-gekko/lib/libc.a(lib_a-mbtowc_r.o)
 .rodata        0x80037180      0x128 /opt/devkitpro/devkitPPC/lib/gcc/powerpc-gekko/4.2.3/../../../../powerpc-gekko/lib/libc.a(lib_a-mprec.o)
                0x80037280                __mprec_tinytens
                0x80037180                __mprec_tens
                0x80037258                __mprec_bigtens
 *(.rodata.*)
 .rodata.cst4   0x800372a8       0x38 GRRLIB.o
 .rodata.cst4   0x800372e0        0x4 main.o
                                  0x8 (size before relaxing)
 .rodata.cst4   0x800372e4        0x8 /opt/devkitpro/libogc/lib/wii/libwiiuse.a(wpad.o)
                                 0x10 (size before relaxing)
 .rodata.cst4   0x800372ec       0x10 /opt/devkitpro/libogc/lib/wii/libwiiuse.a(dynamics.o)
                                 0x20 (size before relaxing)
 .rodata.wiiuse_set_ir_sensitivity
                0x800372fc       0x18 /opt/devkitpro/libogc/lib/wii/libwiiuse.a(ir.o)
 .rodata.cst4   0x80037314       0x6c /opt/devkitpro/libogc/lib/wii/libwiiuse.a(ir.o)
                                 0x8c (size before relaxing)
 .rodata.str1.4
                0x80037380       0x41 /opt/devkitpro/libogc/lib/wii/libwiiuse.a(ir.o)
 *fill*         0x800373c1        0x3 00
 .rodata.cst4   0x800373c4        0x4 /opt/devkitpro/libogc/lib/wii/libwiiuse.a(wiiuse.o)
 .rodata.parse_event
                0x800373c8       0x60 /opt/devkitpro/libogc/lib/wii/libwiiuse.a(events.o)
 .rodata.str1.4
                0x80037428       0x39 /opt/devkitpro/libogc/lib/wii/libwiiuse.a(events.o)
 *fill*         0x80037461        0x3 00
 .rodata.str1.4
                0x80037464      0x264 /opt/devkitpro/libogc/lib/wii/libbte.a(bte.o)
                                0x268 (size before relaxing)
 .rodata.hci_event_handler
                0x800376c8       0x64 /opt/devkitpro/libogc/lib/wii/libbte.a(hci.o)
 .rodata.str1.4
                0x8003772c     0x14fd /opt/devkitpro/libogc/lib/wii/libbte.a(hci.o)
 *fill*         0x80038c29        0x3 00
 .rodata.l2cap_process_sig
                0x80038c2c       0x28 /opt/devkitpro/libogc/lib/wii/libbte.a(l2cap.o)
 .rodata.cst4   0x80038c54        0x8 /opt/devkitpro/libogc/lib/wii/libbte.a(l2cap.o)
 .rodata.str1.4
                0x80038c5c      0x814 /opt/devkitpro/libogc/lib/wii/libbte.a(l2cap.o)
 .rodata.str1.4
                0x80039470       0x65 /opt/devkitpro/libogc/lib/wii/libbte.a(btmemr.o)
 *fill*         0x800394d5        0x3 00
 .rodata.str1.4
                0x800394d8      0x2b9 /opt/devkitpro/libogc/lib/wii/libbte.a(btpbuf.o)
 *fill*         0x80039791        0x3 00
 .rodata.str1.4
                0x80039794      0x108 /opt/devkitpro/libogc/lib/wii/libbte.a(physbusif.o)
 .rodata._irqPrio
                0x8003989c       0x30 /opt/devkitpro/libogc/lib/wii/libogc.a(irq.o)
 .rodata.__gettiming
                0x800398cc       0x58 /opt/devkitpro/libogc/lib/wii/libogc.a(video.o)
 .rodata.video_timing
                0x80039924      0x130 /opt/devkitpro/libogc/lib/wii/libogc.a(video.o)
 .rodata.SYS_ResetSystem
                0x80039a54       0x1c /opt/devkitpro/libogc/lib/wii/libogc.a(system.o)
 .rodata.str1.4
                0x80039a70       0x8f /opt/devkitpro/libogc/lib/wii/libogc.a(system.o)
 *fill*         0x80039aff        0x1 00
 .rodata.GX_SetChanAmbColor
                0x80039b00       0x18 /opt/devkitpro/libogc/lib/wii/libogc.a(gx.o)
 .rodata.GX_SetChanMatColor
                0x80039b18       0x18 /opt/devkitpro/libogc/lib/wii/libogc.a(gx.o)
 .rodata.GX_SetVtxDesc
                0x80039b30       0x68 /opt/devkitpro/libogc/lib/wii/libogc.a(gx.o)
 .rodata.GX_SetTexCoordGen2
                0x80039b98       0x74 /opt/devkitpro/libogc/lib/wii/libogc.a(gx.o)
 .rodata.GX_SetTevOp
                0x80039c0c       0x14 /opt/devkitpro/libogc/lib/wii/libogc.a(gx.o)
 .rodata.GX_SetGPMetric
                0x80039c20       0xe4 /opt/devkitpro/libogc/lib/wii/libogc.a(gx.o)
 .rodata._gxtevcolid
                0x80039d04        0x9 /opt/devkitpro/libogc/lib/wii/libogc.a(gx.o)
 *fill*         0x80039d0d        0x3 00
 .rodata.C.215.8971
                0x80039d10       0x20 /opt/devkitpro/libogc/lib/wii/libogc.a(gx.o)
 .rodata.C.39.4722
                0x80039d30       0x30 /opt/devkitpro/libogc/lib/wii/libogc.a(gx.o)
 .rodata.cst4   0x80039d60       0x3c /opt/devkitpro/libogc/lib/wii/libogc.a(gx.o)
                                 0x68 (size before relaxing)
 .rodata.cst4   0x00000000       0x18 /opt/devkitpro/libogc/lib/wii/libogc.a(gu.o)
 .rodata.__ios_ioctlvformat_parse
                0x80039d9c      0x128 /opt/devkitpro/libogc/lib/wii/libogc.a(ipc.o)
 .rodata.str1.4
                0x80039ec4        0x2 /opt/devkitpro/libogc/lib/wii/libogc.a(newlibc.o)
 *fill*         0x80039ec6        0x2 00
 .rodata.str1.4
                0x80039ec8       0x18 /opt/devkitpro/libogc/lib/wii/libogc.a(ios.o)
                                 0x40 (size before relaxing)
 .rodata.str1.4
                0x80039ee0       0x70 /opt/devkitpro/libogc/lib/wii/libogc.a(es.o)
                                 0x74 (size before relaxing)
 .rodata.str1.4
                0x80039f50       0x1a /opt/devkitpro/libogc/lib/wii/libogc.a(usb.o)
 *fill*         0x80039f6a        0x2 00
 .rodata.CONF_GetLength
                0x80039f6c       0x20 /opt/devkitpro/libogc/lib/wii/libogc.a(conf.o)
 .rodata.CONF_Get
                0x80039f8c       0x20 /opt/devkitpro/libogc/lib/wii/libogc.a(conf.o)
 *fill*         0x80039fac       0x14 00
 .rodata.__conf_file
                0x80039fc0       0x15 /opt/devkitpro/libogc/lib/wii/libogc.a(conf.o)
 *fill*         0x80039fd5        0x3 00
 .rodata.str1.4
                0x80039fd8       0xfd /opt/devkitpro/libogc/lib/wii/libogc.a(conf.o)
 *fill*         0x8003a0d5        0xb 00
 .rodata.__conf_txt_file
                0x8003a0e0       0x2a /opt/devkitpro/libogc/lib/wii/libogc.a(conf.o)
 *fill*         0x8003a10a        0x2 00
 .rodata.exception_location
                0x8003a10c       0x3c /opt/devkitpro/libogc/lib/wii/libogc.a(exception.o)
 .rodata.str1.4
                0x8003a148      0x2c4 /opt/devkitpro/libogc/lib/wii/libogc.a(exception.o)
                                0x2c8 (size before relaxing)
 .rodata.exception_name
                0x8003a40c       0x3c /opt/devkitpro/libogc/lib/wii/libogc.a(exception.o)
 .rodata.cst4   0x8003a448        0x4 /opt/devkitpro/libogc/lib/wii/libogc.a(pad.o)
 .rodata.kvsprintf
                0x8003a44c      0x194 /opt/devkitpro/libogc/lib/wii/libogc.a(kprintf.o)
 .rodata.str1.4
                0x8003a5e0       0x57 /opt/devkitpro/libogc/lib/wii/libogc.a(kprintf.o)
 *fill*         0x8003a637        0x1 00
 .rodata.__console_write
                0x8003a638       0xec /opt/devkitpro/libogc/lib/wii/libogc.a(console.o)
 .rodata.color_table
                0x8003a724       0x40 /opt/devkitpro/libogc/lib/wii/libogc.a(console.o)
                0x8003a724                color_table
 .rodata.dotab_stdout
                0x8003a764       0x50 /opt/devkitpro/libogc/lib/wii/libogc.a(console.o)
                0x8003a764                dotab_stdout
 .rodata.str1.4
                0x8003a7b4        0x7 /opt/devkitpro/libogc/lib/wii/libogc.a(console.o)
 *fill*         0x8003a7bb        0x5 00
 .rodata.cst8   0x8003a7c0        0x8 /opt/devkitpro/devkitPPC/lib/gcc/powerpc-gekko/4.2.3/../../../../powerpc-gekko/lib/libm.a(lib_a-s_atan2.o)
 .rodata.cst4   0x00000000        0x8 /opt/devkitpro/devkitPPC/lib/gcc/powerpc-gekko/4.2.3/../../../../powerpc-gekko/lib/libm.a(lib_a-s_atangent.o)
 .rodata.cst8   0x8003a7c8       0x68 /opt/devkitpro/devkitPPC/lib/gcc/powerpc-gekko/4.2.3/../../../../powerpc-gekko/lib/libm.a(lib_a-s_atangent.o)
                                 0x70 (size before relaxing)
 .rodata.cst8   0x00000000        0x8 /opt/devkitpro/devkitPPC/lib/gcc/powerpc-gekko/4.2.3/../../../../powerpc-gekko/lib/libm.a(lib_a-s_fabs.o)
 .rodata.cst8   0x00000000        0x8 /opt/devkitpro/devkitPPC/lib/gcc/powerpc-gekko/4.2.3/../../../../powerpc-gekko/lib/libm.a(lib_a-s_numtest.o)
 .rodata.cst4   0x00000000        0x8 /opt/devkitpro/devkitPPC/lib/gcc/powerpc-gekko/4.2.3/../../../../powerpc-gekko/lib/libm.a(lib_a-s_sine.o)
 .rodata.cst8   0x8003a830       0x50 /opt/devkitpro/devkitPPC/lib/gcc/powerpc-gekko/4.2.3/../../../../powerpc-gekko/lib/libm.a(lib_a-s_sine.o)
                                 0x60 (size before relaxing)
 .rodata.cst4   0x00000000        0x4 /opt/devkitpro/devkitPPC/lib/gcc/powerpc-gekko/4.2.3/../../../../powerpc-gekko/lib/libm.a(lib_a-s_sqrt.o)
 .rodata.cst8   0x8003a880       0x18 /opt/devkitpro/devkitPPC/lib/gcc/powerpc-gekko/4.2.3/../../../../powerpc-gekko/lib/libm.a(lib_a-s_sqrt.o)
                                 0x20 (size before relaxing)
 .rodata.cst4   0x8003a898        0x4 /opt/devkitpro/devkitPPC/lib/gcc/powerpc-gekko/4.2.3/../../../../powerpc-gekko/lib/libm.a(lib_a-sf_atan.o)
                                  0x8 (size before relaxing)
 .rodata.cst4   0x00000000        0x4 /opt/devkitpro/devkitPPC/lib/gcc/powerpc-gekko/4.2.3/../../../../powerpc-gekko/lib/libm.a(lib_a-sf_atan2.o)
 .rodata.cst4   0x8003a89c       0x18 /opt/devkitpro/devkitPPC/lib/gcc/powerpc-gekko/4.2.3/../../../../powerpc-gekko/lib/libm.a(lib_a-sf_atangent.o)
                                 0x28 (size before relaxing)
 .rodata.cst8   0x00000000        0x8 /opt/devkitpro/devkitPPC/lib/gcc/powerpc-gekko/4.2.3/../../../../powerpc-gekko/lib/libm.a(lib_a-sf_atangent.o)
 .rodata.cst4   0x00000000        0x4 /opt/devkitpro/devkitPPC/lib/gcc/powerpc-gekko/4.2.3/../../../../powerpc-gekko/lib/libm.a(lib_a-sf_fabs.o)
 .rodata.cst4   0x00000000        0x4 /opt/devkitpro/devkitPPC/lib/gcc/powerpc-gekko/4.2.3/../../../../powerpc-gekko/lib/libm.a(lib_a-sf_numtest.o)
 .rodata.cst4   0x8003a8b4       0x18 /opt/devkitpro/devkitPPC/lib/gcc/powerpc-gekko/4.2.3/../../../../powerpc-gekko/lib/libm.a(lib_a-sf_sine.o)
                                 0x28 (size before relaxing)
 .rodata.cst8   0x00000000        0x8 /opt/devkitpro/devkitPPC/lib/gcc/powerpc-gekko/4.2.3/../../../../powerpc-gekko/lib/libm.a(lib_a-sf_sine.o)
 .rodata.cst4   0x00000000        0x8 /opt/devkitpro/devkitPPC/lib/gcc/powerpc-gekko/4.2.3/../../../../powerpc-gekko/lib/libm.a(lib_a-sf_sqrt.o)
 .rodata.cst8   0x00000000       0x18 /opt/devkitpro/devkitPPC/lib/gcc/powerpc-gekko/4.2.3/../../../../powerpc-gekko/lib/libm.a(lib_a-sf_sqrt.o)
 .rodata.cst4   0x00000000        0x4 /opt/devkitpro/devkitPPC/lib/gcc/powerpc-gekko/4.2.3/../../../../powerpc-gekko/lib/libm.a(lib_a-sf_ldexp.o)
 .rodata.str1.4
                0x8003a8cc        0xf /opt/devkitpro/devkitPPC/lib/gcc/powerpc-gekko/4.2.3/../../../../powerpc-gekko/lib/libsysbase.a(abort.o)
 *fill*         0x8003a8db        0x1 00
 .rodata.str1.4
                0x8003a8dc        0x8 /opt/devkitpro/devkitPPC/lib/gcc/powerpc-gekko/4.2.3/../../../../powerpc-gekko/lib/libsysbase.a(iosupport.o)
 .rodata.str1.4
                0x00000000        0x2 /opt/devkitpro/devkitPPC/lib/gcc/powerpc-gekko/4.2.3/../../../../powerpc-gekko/lib/libc.a(lib_a-impure.o)
 .rodata.str1.4
                0x00000000        0x2 /opt/devkitpro/devkitPPC/lib/gcc/powerpc-gekko/4.2.3/../../../../powerpc-gekko/lib/libc.a(lib_a-puts.o)
 .rodata.cst4   0x8003a8e4       0x18 /opt/devkitpro/devkitPPC/lib/gcc/powerpc-gekko/4.2.3/../../../../powerpc-gekko/lib/libc.a(lib_a-vfprintf.o)
 .rodata.cst8   0x00000000        0x8 /opt/devkitpro/devkitPPC/lib/gcc/powerpc-gekko/4.2.3/../../../../powerpc-gekko/lib/libc.a(lib_a-vfprintf.o)
 .rodata.str1.4
                0x8003a8fc       0x5a /opt/devkitpro/devkitPPC/lib/gcc/powerpc-gekko/4.2.3/../../../../powerpc-gekko/lib/libc.a(lib_a-vfprintf.o)
                                 0x5e (size before relaxing)
 *fill*         0x8003a956        0x2 00
 .rodata.str1.4
                0x8003a958       0x1e /opt/devkitpro/devkitPPC/lib/gcc/powerpc-gekko/4.2.3/../../../../powerpc-gekko/lib/libc.a(lib_a-wctomb_r.o)
 *fill*         0x8003a976        0x2 00
 .rodata.cst4   0x8003a978        0x8 /opt/devkitpro/devkitPPC/lib/gcc/powerpc-gekko/4.2.3/../../../../powerpc-gekko/lib/libc.a(lib_a-dtoa.o)
                                 0x20 (size before relaxing)
 .rodata.cst8   0x8003a980       0x18 /opt/devkitpro/devkitPPC/lib/gcc/powerpc-gekko/4.2.3/../../../../powerpc-gekko/lib/libc.a(lib_a-dtoa.o)
                                 0x20 (size before relaxing)
 .rodata.str1.4
                0x8003a998       0x10 /opt/devkitpro/devkitPPC/lib/gcc/powerpc-gekko/4.2.3/../../../../powerpc-gekko/lib/libc.a(lib_a-dtoa.o)
                                 0x12 (size before relaxing)
 .rodata.str1.4
                0x8003a9a8       0x3c /opt/devkitpro/devkitPPC/lib/gcc/powerpc-gekko/4.2.3/../../../../powerpc-gekko/lib/libc.a(lib_a-locale.o)
                                 0x62 (size before relaxing)
 .rodata.str1.4
                0x00000000       0x1e /opt/devkitpro/devkitPPC/lib/gcc/powerpc-gekko/4.2.3/../../../../powerpc-gekko/lib/libc.a(lib_a-mbtowc_r.o)
 .rodata.cst4   0x00000000        0x8 /opt/devkitpro/devkitPPC/lib/gcc/powerpc-gekko/4.2.3/../../../../powerpc-gekko/lib/libc.a(lib_a-mprec.o)
 *(.gnu.linkonce.r.*)

.eh_frame_hdr   0x8003a9e4       0x1c
 .eh_frame_hdr  0x8003a9e4       0x1c /opt/devkitpro/devkitPPC/lib/gcc/powerpc-gekko/4.2.3/libgcc.a(_udivdi3.o)

.rodata1
 *(.rodata1)

.sdata2         0x8003aa00       0x1c
 *(.sdata2)
 .sdata2        0x8003aa00        0x0 /opt/devkitpro/devkitPPC/lib/gcc/powerpc-gekko/4.2.3/ecrti.o
                0x8003aa00                __SDATA2_START__
                0x8003aa00                _SDA2_BASE_
 *(.sdata2.*)
 .sdata2.C.26.8107
                0x8003aa00        0x3 /opt/devkitpro/libogc/lib/wii/libbte.a(bte.o)
 *fill*         0x8003aa03        0x1 00
 .sdata2.C.28.8161
                0x8003aa04        0x3 /opt/devkitpro/libogc/lib/wii/libbte.a(bte.o)
 *fill*         0x8003aa07        0x1 00
 .sdata2.C.29.8181
                0x8003aa08        0x3 /opt/devkitpro/libogc/lib/wii/libbte.a(bte.o)
 *fill*         0x8003aa0b        0x1 00
 .sdata2.C.27.8126
                0x8003aa0c        0x3 /opt/devkitpro/libogc/lib/wii/libbte.a(bte.o)
 *fill*         0x8003aa0f        0x1 00
 .sdata2.__sys_inIPL
                0x8003aa10        0x4 /opt/devkitpro/libogc/lib/wii/libogc.a(system.o)
 .sdata2.cm2hw.8298
                0x8003aa14        0x4 /opt/devkitpro/libogc/lib/wii/libogc.a(gx.o)
 .sdata2._gx    0x8003aa18        0x4 /opt/devkitpro/libogc/lib/wii/libogc.a(gx.o)
 *(.gnu.linkonce.s2.*)

.sbss2
 *(.sbss2)
 *(.sbss2.*)
 *(.gnu.linkonce.sb2.*)
                0x8003aa1c                . = ALIGN (0x4)
                0x8003aa1c                PROVIDE (__preinit_array_start, .)

.preinit_array
 *(.preinit_array)
                0x8003aa1c                PROVIDE (__preinit_array_end, .)
                0x8003aa1c                PROVIDE (__init_array_start, .)

.init_array
 *(.init_array)
                0x8003aa1c                PROVIDE (__init_array_end, .)
                0x8003aa1c                PROVIDE (__fini_array_start, .)

.fini_array
 *(.fini_array)
                0x8003aa1c                PROVIDE (__fini_array_end, .)

.data           0x8003aa20     0x1c60
 *(.data)
 .data          0x8003aa20        0x8 /opt/devkitpro/devkitPPC/lib/gcc/powerpc-gekko/4.2.3/crtbegin.o
                0x8003aa20                __dso_handle
 .data          0x8003aa28       0x14 /opt/devkitpro/libogc/lib/wii/libogc.a(gu_psasm.o)
 .data          0x8003aa3c        0x8 /opt/devkitpro/libogc/lib/wii/libogc.a(ogc_crt0.o)
 .data          0x8003aa44       0x44 /opt/devkitpro/devkitPPC/lib/gcc/powerpc-gekko/4.2.3/../../../../powerpc-gekko/lib/libsysbase.a(iosupport.o)
                0x8003aa48                devoptab_list
 .data          0x8003aa88      0x400 /opt/devkitpro/devkitPPC/lib/gcc/powerpc-gekko/4.2.3/../../../../powerpc-gekko/lib/libc.a(lib_a-impure.o)
 .data          0x8003ae88      0x408 /opt/devkitpro/devkitPPC/lib/gcc/powerpc-gekko/4.2.3/../../../../powerpc-gekko/lib/libc.a(lib_a-mallocr.o)
                0x8003ae88                __malloc_av_
 .data          0x8003b290       0x34 /opt/devkitpro/devkitPPC/lib/gcc/powerpc-gekko/4.2.3/../../../../powerpc-gekko/lib/libc.a(lib_a-locale.o)
                0x8003b2a0                __lc_ctype
 *(.data.*)
 .data.__wpad_resetinfo
                0x8003b2c4       0x10 /opt/devkitpro/libogc/lib/wii/libwiiuse.a(wpad.o)
 .data.bte_patch0
                0x8003b2d4       0xb8 /opt/devkitpro/libogc/lib/wii/libbte.a(bte.o)
 .data.bte_patch1
                0x8003b38c       0x5c /opt/devkitpro/libogc/lib/wii/libbte.a(bte.o)
 .data.TVPal528IntDf
                0x8003b3e8       0x3c /opt/devkitpro/libogc/lib/wii/libogc.a(video.o)
                0x8003b3e8                TVPal528IntDf
 .data.TVNtsc480Prog
                0x8003b424       0x3c /opt/devkitpro/libogc/lib/wii/libogc.a(video.o)
                0x8003b424                TVNtsc480Prog
 .data.TVNtsc480IntDf
                0x8003b460       0x3c /opt/devkitpro/libogc/lib/wii/libogc.a(video.o)
                0x8003b460                TVNtsc480IntDf
 .data.TVEurgb60Hz480Int
                0x8003b49c       0x3c /opt/devkitpro/libogc/lib/wii/libogc.a(video.o)
                0x8003b49c                TVEurgb60Hz480Int
 .data.TVMpal480IntDf
                0x8003b4d8       0x3c /opt/devkitpro/libogc/lib/wii/libogc.a(video.o)
                0x8003b4d8                TVMpal480IntDf
 .data._dsp_initcode
                0x8003b514       0x80 /opt/devkitpro/libogc/lib/wii/libogc.a(system.o)
 .data.mem_resetinfo
                0x8003b594       0x10 /opt/devkitpro/libogc/lib/wii/libogc.a(system.o)
 .data.__gx_resetinfo
                0x8003b5a4       0x10 /opt/devkitpro/libogc/lib/wii/libogc.a(gx.o)
 .data.xy       0x8003b5b4       0x60 /opt/devkitpro/libogc/lib/wii/libogc.a(si.o)
 .data.sicntrl  0x8003b614       0x14 /opt/devkitpro/libogc/lib/wii/libogc.a(si.o)
 .data.si_type  0x8003b628       0x10 /opt/devkitpro/libogc/lib/wii/libogc.a(si.o)
 *fill*         0x8003b638        0x8 00
 .data.__stm_imm_fs
                0x8003b640       0x13 /opt/devkitpro/libogc/lib/wii/libogc.a(stm.o)
 *fill*         0x8003b653        0xd 00
 .data.__stm_eh_fs
                0x8003b660       0x13 /opt/devkitpro/libogc/lib/wii/libogc.a(stm.o)
 *fill*         0x8003b673        0x1 00
 .data.console_font_8x16
                0x8003b674     0x1000 /opt/devkitpro/libogc/lib/wii/libogc.a(console_font_8x16.o)
                0x8003b674                console_font_8x16
 *(.gnu.linkonce.d.*)
                0x8003c680                . = ALIGN (0x20)
 *fill*         0x8003c674        0xc 00

.data1
 *(.data1)

.tdata
 *(.tdata .tdata.* .gnu.linkonce.td.*)

.tbss
 *(.tbss .tbss.* .gnu.linkonce.tb.*)
 *(.tcommon)

.eh_frame       0x8003c680       0x54
 *(.eh_frame)
 .eh_frame      0x8003c680        0x0 /opt/devkitpro/devkitPPC/lib/gcc/powerpc-gekko/4.2.3/ecrti.o
                0x8003c680                __EH_FRAME_BEGIN__
 .eh_frame      0x8003c680        0x0 /opt/devkitpro/devkitPPC/lib/gcc/powerpc-gekko/4.2.3/crtbegin.o
 .eh_frame      0x8003c680       0x2c /opt/devkitpro/devkitPPC/lib/gcc/powerpc-gekko/4.2.3/libgcc.a(_udivdi3.o)
 .eh_frame      0x8003c6ac       0x20 /opt/devkitpro/devkitPPC/lib/gcc/powerpc-gekko/4.2.3/libgcc.a(_umoddi3.o)
                                 0x30 (size before relaxing)
 .eh_frame      0x8003c6cc        0x4 /opt/devkitpro/devkitPPC/lib/gcc/powerpc-gekko/4.2.3/crtend.o
 .eh_frame      0x8003c6d0        0x4 /opt/devkitpro/devkitPPC/lib/gcc/powerpc-gekko/4.2.3/ecrtn.o
                0x8003c6d0                __EH_FRAME_END__

.gcc_except_table
 *(.gcc_except_table)

.fixup
 *(.fixup)

.got1
 *(.got1)

.got2           0x8003c6d4        0x4
 *(.got2)
 .got2          0x8003c6d4        0x4 /opt/devkitpro/devkitPPC/lib/gcc/powerpc-gekko/4.2.3/../../../../powerpc-gekko/lib/crtmain.o

.dynamic
 *(.dynamic)

.ctors          0x8003c6d8        0x8
 *crtbegin.o(.ctors)
 .ctors         0x8003c6d8        0x4 /opt/devkitpro/devkitPPC/lib/gcc/powerpc-gekko/4.2.3/crtbegin.o
 *(EXCLUDE_FILE(*crtend.o) .ctors)
 .ctors         0x8003c6dc        0x0 /opt/devkitpro/devkitPPC/lib/gcc/powerpc-gekko/4.2.3/ecrti.o
                0x8003c6dc                __CTOR_LIST__
 .ctors         0x8003c6dc        0x0 /opt/devkitpro/devkitPPC/lib/gcc/powerpc-gekko/4.2.3/ecrtn.o
                0x8003c6dc                __CTOR_END__
 *(SORT(.ctors.*))
 *(.ctors)
 .ctors         0x8003c6dc        0x4 /opt/devkitpro/devkitPPC/lib/gcc/powerpc-gekko/4.2.3/crtend.o
                0x8003c6e0                . = ALIGN (0x20)
 *fill*         0x8003c6e0        0x0 00

.dtors          0x8003c6e0       0x20
 *crtbegin.o(.dtors)
 .dtors         0x8003c6e0        0x4 /opt/devkitpro/devkitPPC/lib/gcc/powerpc-gekko/4.2.3/crtbegin.o
 *(EXCLUDE_FILE(*crtend.o) .dtors)
 .dtors         0x8003c6e4        0x0 /opt/devkitpro/devkitPPC/lib/gcc/powerpc-gekko/4.2.3/ecrti.o
                0x8003c6e4                __DTOR_LIST__
 .dtors         0x8003c6e4        0x0 /opt/devkitpro/devkitPPC/lib/gcc/powerpc-gekko/4.2.3/ecrtn.o
                0x8003c6e4                __DTOR_END__
 *(SORT(.dtors.*))
 *(.dtors)
 .dtors         0x8003c6e4        0x4 /opt/devkitpro/devkitPPC/lib/gcc/powerpc-gekko/4.2.3/crtend.o
                0x8003c700                . = ALIGN (0x20)
 *fill*         0x8003c6e8       0x18 00

.jcr            0x8003c700        0x4
 *(.jcr)
 .jcr           0x8003c700        0x0 /opt/devkitpro/devkitPPC/lib/gcc/powerpc-gekko/4.2.3/crtbegin.o
 .jcr           0x8003c700        0x4 /opt/devkitpro/devkitPPC/lib/gcc/powerpc-gekko/4.2.3/crtend.o

.got
 *(.got.plt)
 *(.got)

.sdata          0x8003c720      0x120
 *(.sdata)
 .sdata         0x8003c720        0x0 /opt/devkitpro/devkitPPC/lib/gcc/powerpc-gekko/4.2.3/ecrti.o
                0x8003c720                _SDA_BASE_
                0x8003c720                __SDATA_START__
 .sdata         0x8003c720        0x4 /opt/devkitpro/libogc/lib/wii/libogc.a(ogc_crt0.o)
                0x8003c720                __system_argv
 *fill*         0x8003c724        0x4 00
 .sdata         0x8003c728       0x40 /opt/devkitpro/devkitPPC/lib/gcc/powerpc-gekko/4.2.3/../../../../powerpc-gekko/lib/libm.a(lib_a-s_mathcnst.o)
                0x8003c728                BIGX
                0x8003c750                z_hugeval
                0x8003c758                z_infinity
                0x8003c748                z_infinity_f
                0x8003c738                z_rooteps
                0x8003c760                z_notanum
                0x8003c730                SMALLX
                0x8003c744                z_hugeval_f
                0x8003c740                z_rooteps_f
                0x8003c74c                z_notanum_f
 .sdata         0x8003c768        0x4 /opt/devkitpro/devkitPPC/lib/gcc/powerpc-gekko/4.2.3/../../../../powerpc-gekko/lib/libc.a(lib_a-ctype_.o)
                0x8003c768                __ctype_ptr
 .sdata         0x8003c76c        0x8 /opt/devkitpro/devkitPPC/lib/gcc/powerpc-gekko/4.2.3/../../../../powerpc-gekko/lib/libc.a(lib_a-impure.o)
                0x8003c770                _global_impure_ptr
                0x8003c76c                _impure_ptr
 .sdata         0x8003c774        0x8 /opt/devkitpro/devkitPPC/lib/gcc/powerpc-gekko/4.2.3/../../../../powerpc-gekko/lib/libc.a(lib_a-mallocr.o)
                0x8003c778                __malloc_sbrk_base
                0x8003c774                __malloc_trim_threshold
 .sdata         0x8003c77c        0x4 /opt/devkitpro/devkitPPC/lib/gcc/powerpc-gekko/4.2.3/../../../../powerpc-gekko/lib/libc.a(lib_a-locale.o)
                0x8003c77c                __mb_cur_max
 *(.sdata.*)
 .sdata.__wpad_idletimeout
                0x8003c780        0x4 /opt/devkitpro/libogc/lib/wii/libwiiuse.a(wpad.o)
 .sdata.bte_ctrl_reqs
                0x8003c784        0x8 /opt/devkitpro/libogc/lib/wii/libbte.a(bte.o)
 .sdata.bte_pcbs
                0x8003c78c        0x8 /opt/devkitpro/libogc/lib/wii/libbte.a(bte.o)
 .sdata.hci_inq_results
                0x8003c794        0x8 /opt/devkitpro/libogc/lib/wii/libbte.a(hci.o)
 .sdata.hci_pcbs
                0x8003c79c        0x8 /opt/devkitpro/libogc/lib/wii/libbte.a(hci.o)
 .sdata.hci_links
                0x8003c7a4        0x8 /opt/devkitpro/libogc/lib/wii/libbte.a(hci.o)
 .sdata.hci_link_key_results
                0x8003c7ac        0x8 /opt/devkitpro/libogc/lib/wii/libbte.a(hci.o)
 .sdata.l2cap_segs
                0x8003c7b4        0x8 /opt/devkitpro/libogc/lib/wii/libbte.a(l2cap.o)
 .sdata.l2cap_listenpcbs
                0x8003c7bc        0x8 /opt/devkitpro/libogc/lib/wii/libbte.a(l2cap.o)
 .sdata.l2cap_pcbs
                0x8003c7c4        0x8 /opt/devkitpro/libogc/lib/wii/libbte.a(l2cap.o)
 .sdata.l2cap_sigs
                0x8003c7cc        0x8 /opt/devkitpro/libogc/lib/wii/libbte.a(l2cap.o)
 .sdata.pool_pbufs
                0x8003c7d4        0x8 /opt/devkitpro/libogc/lib/wii/libbte.a(btpbuf.o)
 .sdata.rom_pbufs
                0x8003c7dc        0x8 /opt/devkitpro/libogc/lib/wii/libbte.a(btpbuf.o)
 .sdata.__wait4hci
                0x8003c7e4        0x4 /opt/devkitpro/libogc/lib/wii/libbte.a(physbusif.o)
 .sdata.__ntd_usb_fd
                0x8003c7e8        0x4 /opt/devkitpro/libogc/lib/wii/libbte.a(physbusif.o)
 .sdata.oldTvStatus
                0x8003c7ec        0x4 /opt/devkitpro/libogc/lib/wii/libogc.a(video.o)
 .sdata.oldDtvStatus
                0x8003c7f0        0x4 /opt/devkitpro/libogc/lib/wii/libogc.a(video.o)
 .sdata.i2cIdentFlag
                0x8003c7f4        0x4 /opt/devkitpro/libogc/lib/wii/libogc.a(video.o)
 .sdata.__argvArena1Lo
                0x8003c7f8        0x4 /opt/devkitpro/libogc/lib/wii/libogc.a(system.o)
                0x8003c7f8                __argvArena1Lo
 .sdata._gxcurrentlwp
                0x8003c7fc        0x4 /opt/devkitpro/libogc/lib/wii/libogc.a(gx.o)
 .sdata._ipc_hid
                0x8003c800        0x4 /opt/devkitpro/libogc/lib/wii/libogc.a(ipc.o)
 .sdata._ipc_mailboxack
                0x8003c804        0x4 /opt/devkitpro/libogc/lib/wii/libogc.a(ipc.o)
 .sdata.__stm_imm_fd
                0x8003c808        0x4 /opt/devkitpro/libogc/lib/wii/libogc.a(stm.o)
 .sdata.__stm_eh_fd
                0x8003c80c        0x4 /opt/devkitpro/libogc/lib/wii/libogc.a(stm.o)
 .sdata.__ios_hid
                0x8003c810        0x4 /opt/devkitpro/libogc/lib/wii/libogc.a(ios.o)
 .sdata.__es_fd
                0x8003c814        0x4 /opt/devkitpro/libogc/lib/wii/libogc.a(es.o)
 *fill*         0x8003c818        0x8 00
 .sdata.__es_fs
                0x8003c820        0x8 /opt/devkitpro/libogc/lib/wii/libogc.a(es.o)
 .sdata.__es_hid
                0x8003c828        0x4 /opt/devkitpro/libogc/lib/wii/libogc.a(es.o)
 .sdata.hId     0x8003c82c        0x4 /opt/devkitpro/libogc/lib/wii/libogc.a(usb.o)
 .sdata.__pad_spec
                0x8003c830        0x4 /opt/devkitpro/libogc/lib/wii/libogc.a(pad.o)
 .sdata.__pad_cmdcalibrate
                0x8003c834        0x4 /opt/devkitpro/libogc/lib/wii/libogc.a(pad.o)
 .sdata.__pad_resettingchan
                0x8003c838        0x4 /opt/devkitpro/libogc/lib/wii/libogc.a(pad.o)
 .sdata.__pad_cmdreadorigin
                0x8003c83c        0x4 /opt/devkitpro/libogc/lib/wii/libogc.a(pad.o)
 *(.gnu.linkonce.s.*)
                0x8003c840                . = ALIGN (0x20)
                0x8003c840                _edata = .
                0x8003c840                PROVIDE (edata, .)
                0x00005ba0                data_mem_size = (. - data_mem_start)
                0x8003c840                bss_mem_start = .

.sbss           0x8003c840      0x240
                0x8003c840                __sbss_start = .
                0x8003c840                PROVIDE (__sbss_start, .)
                0x8003c840                PROVIDE (___sbss_start, .)
 *(.dynsbss)
 *(.sbss)
 .sbss          0x00000000        0x0 /opt/devkitpro/devkitPPC/lib/gcc/powerpc-gekko/4.2.3/crtbegin.o
 .sbss          0x8003c840        0x4 GRRLIB.o
                0x8003c840                rmode
 .sbss          0x8003c844        0x5 /opt/devkitpro/libogc/lib/wii/libbte.a(l2cap.o)
                0x8003c844                l2cap_active_pcbs
                0x8003c848                sigid_nxt
 *fill*         0x8003c849        0x3 00
 .sbss          0x8003c84c        0x8 /opt/devkitpro/libogc/lib/wii/libogc.a(lwp_threads.o)
                0x8003c84c                _context_switch_want
                0x8003c850                _thread_dispatch_disable_level
 .sbss          0x8003c854        0xc /opt/devkitpro/libogc/lib/wii/libogc.a(lwp_watchdog.o)
                0x8003c854                _wd_sync_count
                0x8003c858                _wd_sync_level
                0x8003c85c                _wd_ticks_since_boot
 .sbss          0x8003c860        0x4 /opt/devkitpro/libogc/lib/wii/libogc.a(sys_state.o)
                0x8003c860                _sys_state_curr
 .sbss          0x8003c864        0x4 /opt/devkitpro/libogc/lib/wii/libogc.a(newlibc.o)
                0x8003c864                libc_reentrant
 .sbss          0x8003c868        0x4 /opt/devkitpro/libogc/lib/wii/libogc.a(lwp_priority.o)
                0x8003c868                _prio_major_bitmap
 .sbss          0x8003c86c        0xc /opt/devkitpro/devkitPPC/lib/gcc/powerpc-gekko/4.2.3/../../../../powerpc-gekko/lib/libc.a(lib_a-mallocr.o)
                0x8003c86c                __malloc_top_pad
                0x8003c870                __malloc_max_sbrked_mem
                0x8003c874                __malloc_max_total_mem
 *(.sbss.*)
 .sbss.gp_fifo  0x8003c878        0x4 GRRLIB.o
                0x8003c878                gp_fifo
 .sbss.fb       0x8003c87c        0x4 GRRLIB.o
                0x8003c87c                fb
 .sbss.__wpads  0x8003c880        0x4 /opt/devkitpro/libogc/lib/wii/libwiiuse.a(wpad.o)
 .sbss.__wpad_timer
                0x8003c884        0x4 /opt/devkitpro/libogc/lib/wii/libwiiuse.a(wpad.o)
 .sbss.__wpads_inited
                0x8003c888        0x4 /opt/devkitpro/libogc/lib/wii/libwiiuse.a(wpad.o)
 .sbss.__wpads_ponded
                0x8003c88c        0x4 /opt/devkitpro/libogc/lib/wii/libwiiuse.a(wpad.o)
 .sbss.__wpads_registered
                0x8003c890        0x4 /opt/devkitpro/libogc/lib/wii/libwiiuse.a(wpad.o)
 .sbss.__wpads_active
                0x8003c894        0x4 /opt/devkitpro/libogc/lib/wii/libwiiuse.a(wpad.o)
 .sbss.hci_dev  0x8003c898        0x4 /opt/devkitpro/libogc/lib/wii/libbte.a(hci.o)
                0x8003c898                hci_dev
 .sbss.hci_active_links
                0x8003c89c        0x4 /opt/devkitpro/libogc/lib/wii/libbte.a(hci.o)
                0x8003c89c                hci_active_links
 .sbss.hci_tmp_link
                0x8003c8a0        0x4 /opt/devkitpro/libogc/lib/wii/libbte.a(hci.o)
                0x8003c8a0                hci_tmp_link
 .sbss.l2cap_listen_pcbs
                0x8003c8a4        0x4 /opt/devkitpro/libogc/lib/wii/libbte.a(l2cap.o)
                0x8003c8a4                l2cap_listen_pcbs
 .sbss.l2cap_tmp_sig
                0x8003c8a8        0x4 /opt/devkitpro/libogc/lib/wii/libbte.a(l2cap.o)
                0x8003c8a8                l2cap_tmp_sig
 .sbss.l2cap_tmp_pcb
                0x8003c8ac        0x4 /opt/devkitpro/libogc/lib/wii/libbte.a(l2cap.o)
                0x8003c8ac                l2cap_tmp_pcb
 .sbss.l2cap_insegs
                0x8003c8b0        0x4 /opt/devkitpro/libogc/lib/wii/libbte.a(l2cap.o)
                0x8003c8b0                l2cap_insegs
 .sbss.l2cap_tmp_inseg
                0x8003c8b4        0x4 /opt/devkitpro/libogc/lib/wii/libbte.a(l2cap.o)
                0x8003c8b4                l2cap_tmp_inseg
 .sbss.ram_end  0x8003c8b8        0x4 /opt/devkitpro/libogc/lib/wii/libbte.a(btmemr.o)
 .sbss.ram_free
                0x8003c8bc        0x4 /opt/devkitpro/libogc/lib/wii/libbte.a(btmemr.o)
 .sbss.__ntd_vid
                0x8003c8c0        0x2 /opt/devkitpro/libogc/lib/wii/libbte.a(physbusif.o)
 *fill*         0x8003c8c2        0x2 00
 .sbss.ctrlbufs
                0x8003c8c4        0x8 /opt/devkitpro/libogc/lib/wii/libbte.a(physbusif.o)
 .sbss.__ntd_pid
                0x8003c8cc        0x2 /opt/devkitpro/libogc/lib/wii/libbte.a(physbusif.o)
 *fill*         0x8003c8ce        0x2 00
 .sbss.__ntd_ohci
                0x8003c8d0        0x4 /opt/devkitpro/libogc/lib/wii/libbte.a(physbusif.o)
 .sbss.__ntd_vid_pid_specified
                0x8003c8d4        0x4 /opt/devkitpro/libogc/lib/wii/libbte.a(physbusif.o)
 .sbss.__ntd_ohci_initflag
                0x8003c8d8        0x4 /opt/devkitpro/libogc/lib/wii/libbte.a(physbusif.o)
 .sbss.aclbufs  0x8003c8dc        0x8 /opt/devkitpro/libogc/lib/wii/libbte.a(physbusif.o)
 .sbss._thr_executing
                0x8003c8e4        0x4 /opt/devkitpro/libogc/lib/wii/libogc.a(lwp_threads.o)
                0x8003c8e4                _thr_executing
 .sbss._lwp_exitfunc
                0x8003c8e8        0x4 /opt/devkitpro/libogc/lib/wii/libogc.a(lwp_threads.o)
 .sbss._thr_main
                0x8003c8ec        0x4 /opt/devkitpro/libogc/lib/wii/libogc.a(lwp_threads.o)
                0x8003c8ec                _thr_main
 .sbss.__lwp_thr_libc_reent
                0x8003c8f0        0x4 /opt/devkitpro/libogc/lib/wii/libogc.a(lwp_threads.o)
                0x8003c8f0                __lwp_thr_libc_reent
 .sbss._thr_heir
                0x8003c8f4        0x4 /opt/devkitpro/libogc/lib/wii/libogc.a(lwp_threads.o)
                0x8003c8f4                _thr_heir
 .sbss._thr_allocated_fp
                0x8003c8f8        0x4 /opt/devkitpro/libogc/lib/wii/libogc.a(lwp_threads.o)
                0x8003c8f8                _thr_allocated_fp
 .sbss._thr_idle
                0x8003c8fc        0x4 /opt/devkitpro/libogc/lib/wii/libogc.a(lwp_threads.o)
                0x8003c8fc                _thr_idle
 .sbss.__wkspace_heap_size
                0x8003c900        0x4 /opt/devkitpro/libogc/lib/wii/libogc.a(lwp_wkspace.o)
 .sbss.null_local_table
                0x8003c904        0x4 /opt/devkitpro/libogc/lib/wii/libogc.a(lwp_objmgr.o)
 .sbss._lwp_objmgr_memsize
                0x8003c908        0x4 /opt/devkitpro/libogc/lib/wii/libogc.a(lwp_objmgr.o)
 *fill*         0x8003c90c        0x4 00
 .sbss.spuriousIrq
                0x8003c910        0x8 /opt/devkitpro/libogc/lib/wii/libogc.a(irq.o)
 .sbss.prevIrqMask
                0x8003c918        0x4 /opt/devkitpro/libogc/lib/wii/libogc.a(irq.o)
 .sbss.currIrqMask
                0x8003c91c        0x4 /opt/devkitpro/libogc/lib/wii/libogc.a(irq.o)
 .sbss.postRetraceCB
                0x8003c920        0x4 /opt/devkitpro/libogc/lib/wii/libogc.a(video.o)
 .sbss.currentFb
                0x8003c924        0x4 /opt/devkitpro/libogc/lib/wii/libogc.a(video.o)
 .sbss.currTiming
                0x8003c928        0x4 /opt/devkitpro/libogc/lib/wii/libogc.a(video.o)
 .sbss.currTvMode
                0x8003c92c        0x4 /opt/devkitpro/libogc/lib/wii/libogc.a(video.o)
 .sbss.nextFb   0x8003c930        0x4 /opt/devkitpro/libogc/lib/wii/libogc.a(video.o)
 .sbss.encoderType
                0x8003c934        0x4 /opt/devkitpro/libogc/lib/wii/libogc.a(video.o)
 .sbss.displayOffsetH
                0x8003c938        0x2 /opt/devkitpro/libogc/lib/wii/libogc.a(video.o)
 *fill*         0x8003c93a        0x2 00
 .sbss.changeMode
                0x8003c93c        0x4 /opt/devkitpro/libogc/lib/wii/libogc.a(video.o)
 .sbss.displayOffsetV
                0x8003c940        0x2 /opt/devkitpro/libogc/lib/wii/libogc.a(video.o)
 *fill*         0x8003c942        0x2 00
 .sbss.flushFlag
                0x8003c944        0x4 /opt/devkitpro/libogc/lib/wii/libogc.a(video.o)
 .sbss.preRetraceCB
                0x8003c948        0x4 /opt/devkitpro/libogc/lib/wii/libogc.a(video.o)
 .sbss.video_queue
                0x8003c94c        0x4 /opt/devkitpro/libogc/lib/wii/libogc.a(video.o)
 .sbss.shdw_changeMode
                0x8003c950        0x4 /opt/devkitpro/libogc/lib/wii/libogc.a(video.o)
 .sbss.retraceCount
                0x8003c954        0x4 /opt/devkitpro/libogc/lib/wii/libogc.a(video.o)
 .sbss.changed  0x8003c958        0x8 /opt/devkitpro/libogc/lib/wii/libogc.a(video.o)
 .sbss.fbSet    0x8003c960        0x4 /opt/devkitpro/libogc/lib/wii/libogc.a(video.o)
 .sbss.vdacFlagRegion
                0x8003c964        0x4 /opt/devkitpro/libogc/lib/wii/libogc.a(video.o)
 .sbss.shdw_changed
                0x8003c968        0x8 /opt/devkitpro/libogc/lib/wii/libogc.a(video.o)
 .sbss.i2cIdentFirst
                0x8003c970        0x4 /opt/devkitpro/libogc/lib/wii/libogc.a(video.o)
 .sbss.__sysarena1hi
                0x8003c974        0x4 /opt/devkitpro/libogc/lib/wii/libogc.a(system.o)
 .sbss.__ipcbufferhi
                0x8003c978        0x4 /opt/devkitpro/libogc/lib/wii/libogc.a(system.o)
 .sbss.__sysarena2lo
                0x8003c97c        0x4 /opt/devkitpro/libogc/lib/wii/libogc.a(system.o)
 .sbss.system_initialized
                0x8003c980        0x4 /opt/devkitpro/libogc/lib/wii/libogc.a(system.o)
 .sbss.__sysarena1lo
                0x8003c984        0x4 /opt/devkitpro/libogc/lib/wii/libogc.a(system.o)
 .sbss.__sys_versionbuild
                0x8003c988        0x4 /opt/devkitpro/libogc/lib/wii/libogc.a(system.o)
 .sbss.__ipcbufferlo
                0x8003c98c        0x4 /opt/devkitpro/libogc/lib/wii/libogc.a(system.o)
 .sbss.__sysarena2hi
                0x8003c990        0x4 /opt/devkitpro/libogc/lib/wii/libogc.a(system.o)
 .sbss.__sys_versiondate
                0x8003c994        0x4 /opt/devkitpro/libogc/lib/wii/libogc.a(system.o)
 .sbss.__RSWCallback
                0x8003c998        0x4 /opt/devkitpro/libogc/lib/wii/libogc.a(system.o)
 .sbss.__POWCallback
                0x8003c99c        0x4 /opt/devkitpro/libogc/lib/wii/libogc.a(system.o)
 .sbss.__sys_resetdown
                0x8003c9a0        0x4 /opt/devkitpro/libogc/lib/wii/libogc.a(system.o)
 .sbss._gxcpufifoready
                0x8003c9a4        0x1 /opt/devkitpro/libogc/lib/wii/libogc.a(gx.o)
 *fill*         0x8003c9a5        0x3 00
 .sbss.tokenCB  0x8003c9a8        0x4 /opt/devkitpro/libogc/lib/wii/libogc.a(gx.o)
 .sbss.regionA.4668
                0x8003c9ac        0x4 /opt/devkitpro/libogc/lib/wii/libogc.a(gx.o)
 .sbss._gxwaitfinish
                0x8003c9b0        0x4 /opt/devkitpro/libogc/lib/wii/libogc.a(gx.o)
 .sbss._gxgpfifoready
                0x8003c9b4        0x1 /opt/devkitpro/libogc/lib/wii/libogc.a(gx.o)
 *fill*         0x8003c9b5        0x3 00
 .sbss.drawDoneCB
                0x8003c9b8        0x4 /opt/devkitpro/libogc/lib/wii/libogc.a(gx.o)
 .sbss.tlut_regionCB
                0x8003c9bc        0x4 /opt/devkitpro/libogc/lib/wii/libogc.a(gx.o)
 .sbss.regionCB
                0x8003c9c0        0x4 /opt/devkitpro/libogc/lib/wii/libogc.a(gx.o)
 .sbss.regionB.4669
                0x8003c9c4        0x4 /opt/devkitpro/libogc/lib/wii/libogc.a(gx.o)
 .sbss.breakPtCB
                0x8003c9c8        0x4 /opt/devkitpro/libogc/lib/wii/libogc.a(gx.o)
 .sbss._cpgplinked
                0x8003c9cc        0x1 /opt/devkitpro/libogc/lib/wii/libogc.a(gx.o)
 *fill*         0x8003c9cd        0x3 00
 .sbss._gxoverflowsuspend
                0x8003c9d0        0x4 /opt/devkitpro/libogc/lib/wii/libogc.a(gx.o)
 .sbss._gxfinished
                0x8003c9d4        0x4 /opt/devkitpro/libogc/lib/wii/libogc.a(gx.o)
 .sbss._cpufifo
                0x8003c9d8        0x4 /opt/devkitpro/libogc/lib/wii/libogc.a(gx.o)
 .sbss._gxoverflowcount
                0x8003c9dc        0x4 /opt/devkitpro/libogc/lib/wii/libogc.a(gx.o)
 .sbss._gpfifo  0x8003c9e0        0x4 /opt/devkitpro/libogc/lib/wii/libogc.a(gx.o)
 .sbss.__PADFixBits
                0x8003c9e4        0x4 /opt/devkitpro/libogc/lib/wii/libogc.a(si.o)
                0x8003c9e4                __PADFixBits
 .sbss.cmdtypeandstatus$47
                0x8003c9e8        0x4 /opt/devkitpro/libogc/lib/wii/libogc.a(si.o)
 .sbss.sampling_rate
                0x8003c9ec        0x4 /opt/devkitpro/libogc/lib/wii/libogc.a(si.o)
 .sbss.cmdtypeandstatus$223
                0x8003c9f0        0x4 /opt/devkitpro/libogc/lib/wii/libogc.a(si.o)
 .sbss._ipc_currbufferhi
                0x8003c9f4        0x4 /opt/devkitpro/libogc/lib/wii/libogc.a(ipc.o)
 .sbss._ipc_spuriousresponsecnt
                0x8003c9f8        0x8 /opt/devkitpro/libogc/lib/wii/libogc.a(ipc.o)
 .sbss._ipc_relnchFl
                0x8003ca00        0x4 /opt/devkitpro/libogc/lib/wii/libogc.a(ipc.o)
 .sbss._ipc_clntinitialized
                0x8003ca04        0x4 /opt/devkitpro/libogc/lib/wii/libogc.a(ipc.o)
 .sbss._ipc_bufferlo
                0x8003ca08        0x4 /opt/devkitpro/libogc/lib/wii/libogc.a(ipc.o)
 .sbss._ipc_bufferhi
                0x8003ca0c        0x4 /opt/devkitpro/libogc/lib/wii/libogc.a(ipc.o)
 .sbss._ipc_currbufferlo
                0x8003ca10        0x4 /opt/devkitpro/libogc/lib/wii/libogc.a(ipc.o)
 .sbss._ipc_relnchRpc
                0x8003ca14        0x4 /opt/devkitpro/libogc/lib/wii/libogc.a(ipc.o)
 .sbss._ipc_initialized
                0x8003ca18        0x4 /opt/devkitpro/libogc/lib/wii/libogc.a(ipc.o)
 .sbss.time_exi_wait
                0x8003ca1c        0x4 /opt/devkitpro/libogc/lib/wii/libogc.a(timesupp.o)
 .sbss.exi_wait_inited
                0x8003ca20        0x4 /opt/devkitpro/libogc/lib/wii/libogc.a(timesupp.o)
 .sbss.initialized
                0x8003ca24        0x4 /opt/devkitpro/libogc/lib/wii/libogc.a(malloc_lock.o)
 .sbss.__stm_initialized
                0x8003ca28        0x4 /opt/devkitpro/libogc/lib/wii/libogc.a(stm.o)
 .sbss.__stm_vdinuse
                0x8003ca2c        0x4 /opt/devkitpro/libogc/lib/wii/libogc.a(stm.o)
 .sbss.__stm_ehregistered
                0x8003ca30        0x4 /opt/devkitpro/libogc/lib/wii/libogc.a(stm.o)
 .sbss.__stm_eventcb
                0x8003ca34        0x4 /opt/devkitpro/libogc/lib/wii/libogc.a(stm.o)
                0x8003ca34                __stm_eventcb
 .sbss.__stm_ehclear
                0x8003ca38        0x4 /opt/devkitpro/libogc/lib/wii/libogc.a(stm.o)
 .sbss.__conf_inited
                0x8003ca3c        0x4 /opt/devkitpro/libogc/lib/wii/libogc.a(conf.o)
 .sbss.__pad_makestatus
                0x8003ca40        0x4 /opt/devkitpro/libogc/lib/wii/libogc.a(pad.o)
 .sbss.__pad_resettingbits
                0x8003ca44        0x4 /opt/devkitpro/libogc/lib/wii/libogc.a(pad.o)
 .sbss.__pad_recalibratebits
                0x8003ca48        0x4 /opt/devkitpro/libogc/lib/wii/libogc.a(pad.o)
 .sbss.__pad_enabledbits
                0x8003ca4c        0x4 /opt/devkitpro/libogc/lib/wii/libogc.a(pad.o)
 .sbss.__pad_pendingbits
                0x8003ca50        0x4 /opt/devkitpro/libogc/lib/wii/libogc.a(pad.o)
 .sbss.__pad_checkingbits
                0x8003ca54        0x4 /opt/devkitpro/libogc/lib/wii/libogc.a(pad.o)
 .sbss.__pad_waitingbits
                0x8003ca58        0x4 /opt/devkitpro/libogc/lib/wii/libogc.a(pad.o)
 .sbss.exi_id_serport1
                0x8003ca5c        0x4 /opt/devkitpro/libogc/lib/wii/libogc.a(exi.o)
 .sbss.curr_con
                0x8003ca60        0x4 /opt/devkitpro/libogc/lib/wii/libogc.a(console.o)
 .sbss.do_xfb_copy
                0x8003ca64        0x4 /opt/devkitpro/libogc/lib/wii/libogc.a(console.o)
 *(.gnu.linkonce.sb.*)
 *(.scommon)
                0x8003ca68                PROVIDE (__sbss_end, .)
                0x8003ca68                PROVIDE (___sbss_end, .)
                0x8003ca80                . = ALIGN (0x20)
 *fill*         0x8003ca68       0x18 00
                0x8003ca80                __sbss_end = .

.bss            0x8003ca80    0x714e0
                0x8003ca80                __bss_start = .
                0x8003ca80                PROVIDE (__bss_start, .)
 *(.dynbss)
 *(.bss)
 .bss           0x8003ca80       0x1c /opt/devkitpro/devkitPPC/lib/gcc/powerpc-gekko/4.2.3/crtbegin.o
 *fill*         0x8003ca9c        0x4 00
 .bss           0x8003caa0     0x4000 /opt/devkitpro/libogc/lib/wii/libogc.a(ogc_crt0.o)
 .bss           0x80040aa0       0x20 /opt/devkitpro/devkitPPC/lib/gcc/powerpc-gekko/4.2.3/../../../../powerpc-gekko/lib/libsysbase.a(syscall_support.o)
                0x80040aa0                __syscalls
 .bss           0x80040ac0       0x28 /opt/devkitpro/devkitPPC/lib/gcc/powerpc-gekko/4.2.3/../../../../powerpc-gekko/lib/libc.a(lib_a-mallocr.o)
                0x80040ac0                __malloc_current_mallinfo
 .bss           0x80040ae8        0x8 /opt/devkitpro/devkitPPC/lib/gcc/powerpc-gekko/4.2.3/../../../../powerpc-gekko/lib/libc.a(lib_a-findfp.o)
 .bss           0x80040af0     0x1000 /opt/devkitpro/devkitPPC/lib/gcc/powerpc-gekko/4.2.3/../../../../powerpc-gekko/lib/libsysbase.a(handle_manager.o)
 *(.bss.*)
 .bss.xfb       0x80041af0        0x8 GRRLIB.o
 .bss.__wpad_devs
                0x80041af8      0x118 /opt/devkitpro/libogc/lib/wii/libwiiuse.a(wpad.o)
 .bss.__wpdcb   0x80041c10     0x55d0 /opt/devkitpro/libogc/lib/wii/libwiiuse.a(wpad.o)
 .bss.__wpad_keys
                0x800471e0       0x58 /opt/devkitpro/libogc/lib/wii/libwiiuse.a(wpad.o)
 .bss.wpaddata  0x80047238      0x500 /opt/devkitpro/libogc/lib/wii/libwiiuse.a(wpad.o)
 .bss.btstate   0x80047738       0x1c /opt/devkitpro/libogc/lib/wii/libbte.a(bte.o)
 *fill*         0x80047754        0x4 00
 .bss.ppc_stack
                0x80047758     0x8000 /opt/devkitpro/libogc/lib/wii/libbte.a(bte.o)
 .bss.memb_mem_bte_pcbs
                0x8004f758      0x2d8 /opt/devkitpro/libogc/lib/wii/libbte.a(bte.o)
 .bss.memb_mem_bte_ctrl_reqs
                0x8004fa30     0x1c00 /opt/devkitpro/libogc/lib/wii/libbte.a(bte.o)
 .bss.memb_mem_hci_inq_results
                0x80051630     0x1800 /opt/devkitpro/libogc/lib/wii/libbte.a(hci.o)
 .bss.memb_mem_hci_links
                0x80052e30       0xa8 /opt/devkitpro/libogc/lib/wii/libbte.a(hci.o)
 .bss.memb_mem_hci_link_key_results
                0x80052ed8     0x2000 /opt/devkitpro/libogc/lib/wii/libbte.a(hci.o)
 .bss.memb_mem_hci_pcbs
                0x80054ed8       0x5c /opt/devkitpro/libogc/lib/wii/libbte.a(hci.o)
 .bss.memb_mem_l2cap_sigs
                0x80054f34       0xf0 /opt/devkitpro/libogc/lib/wii/libbte.a(l2cap.o)
 .bss.memb_mem_l2cap_pcbs
                0x80055024      0x498 /opt/devkitpro/libogc/lib/wii/libbte.a(l2cap.o)
 .bss.memb_mem_l2cap_listenpcbs
                0x800554bc      0x150 /opt/devkitpro/libogc/lib/wii/libbte.a(l2cap.o)
 .bss.memb_mem_l2cap_segs
                0x8005560c      0x1c0 /opt/devkitpro/libogc/lib/wii/libbte.a(l2cap.o)
 .bss.ram_block
                0x800557cc    0x10010 /opt/devkitpro/libogc/lib/wii/libbte.a(btmemr.o)
 .bss.memb_mem_rom_pbufs
                0x800657dc      0x384 /opt/devkitpro/libogc/lib/wii/libbte.a(btpbuf.o)
 .bss.memb_mem_pool_pbufs
                0x80065b60    0x32280 /opt/devkitpro/libogc/lib/wii/libbte.a(btpbuf.o)
 .bss.__usbdev  0x80097de0       0x1c /opt/devkitpro/libogc/lib/wii/libbte.a(physbusif.o)
 *fill*         0x80097dfc        0x4 00
 .bss.__ppc_btstack1
                0x80097e00     0x8000 /opt/devkitpro/libogc/lib/wii/libbte.a(physbusif.o)
 .bss.__ppc_btstack2
                0x8009fe00     0x8000 /opt/devkitpro/libogc/lib/wii/libbte.a(physbusif.o)
 .bss.g_IRQHandler
                0x800a7e00      0x100 /opt/devkitpro/libogc/lib/wii/libogc.a(irq.o)
 .bss.shdw_regs
                0x800a7f00       0x78 /opt/devkitpro/libogc/lib/wii/libogc.a(video.o)
 .bss.regs      0x800a7f78       0x78 /opt/devkitpro/libogc/lib/wii/libogc.a(video.o)
 .bss.HorVer    0x800a7ff0       0x58 /opt/devkitpro/libogc/lib/wii/libogc.a(video.o)
 .bss.sys_alarm_objects
                0x800a8048       0x28 /opt/devkitpro/libogc/lib/wii/libogc.a(system.o)
 .bss.sys_reset_func_queue
                0x800a8070        0xc /opt/devkitpro/libogc/lib/wii/libogc.a(system.o)
 .bss._gxdefiniobj
                0x800a807c       0x80 /opt/devkitpro/libogc/lib/wii/libogc.a(gx.o)
 .bss.inputBufferValid
                0x800a80fc       0x10 /opt/devkitpro/libogc/lib/wii/libogc.a(si.o)
 .bss.inputBuffer
                0x800a810c       0x20 /opt/devkitpro/libogc/lib/wii/libogc.a(si.o)
 .bss.typeCallback
                0x800a812c       0x40 /opt/devkitpro/libogc/lib/wii/libogc.a(si.o)
 *fill*         0x800a816c        0x4 00
 .bss.typeTime  0x800a8170       0x20 /opt/devkitpro/libogc/lib/wii/libogc.a(si.o)
 .bss.xferTime  0x800a8190       0x20 /opt/devkitpro/libogc/lib/wii/libogc.a(si.o)
 .bss.cmdfixdevice
                0x800a81b0       0x10 /opt/devkitpro/libogc/lib/wii/libogc.a(si.o)
 .bss.sipacket  0x800a81c0       0x80 /opt/devkitpro/libogc/lib/wii/libogc.a(si.o)
 .bss.inputBufferVCount
                0x800a8240       0x10 /opt/devkitpro/libogc/lib/wii/libogc.a(si.o)
 .bss.si_alarm  0x800a8250       0x10 /opt/devkitpro/libogc/lib/wii/libogc.a(si.o)
 .bss.rdstHandlers
                0x800a8260       0x10 /opt/devkitpro/libogc/lib/wii/libogc.a(si.o)
 .bss._ipc_heaps
                0x800a8270      0x120 /opt/devkitpro/libogc/lib/wii/libogc.a(ipc.o)
 .bss._ipc_responses
                0x800a8390       0x50 /opt/devkitpro/libogc/lib/wii/libogc.a(ipc.o)
 .bss.mem_lock  0x800a83e0       0x5c /opt/devkitpro/libogc/lib/wii/libogc.a(malloc_lock.o)
 *fill*         0x800a843c        0x4 00
 .bss.__stm_ehbufin
                0x800a8440       0x20 /opt/devkitpro/libogc/lib/wii/libogc.a(stm.o)
 .bss.__stm_ehbufout
                0x800a8460       0x20 /opt/devkitpro/libogc/lib/wii/libogc.a(stm.o)
 .bss.__stm_immbufin
                0x800a8480       0x20 /opt/devkitpro/libogc/lib/wii/libogc.a(stm.o)
 .bss.__stm_immbufout
                0x800a84a0       0x20 /opt/devkitpro/libogc/lib/wii/libogc.a(stm.o)
 .bss.__conf_buffer
                0x800a84c0     0x4000 /opt/devkitpro/libogc/lib/wii/libogc.a(conf.o)
 .bss.__conf_txt_buffer
                0x800ac4c0      0x101 /opt/devkitpro/libogc/lib/wii/libogc.a(conf.o)
 *fill*         0x800ac5c1        0x3 00
 .bss.__pad_type
                0x800ac5c4       0x10 /opt/devkitpro/libogc/lib/wii/libogc.a(pad.o)
 .bss.__pad_cmdprobedevice
                0x800ac5d4       0x10 /opt/devkitpro/libogc/lib/wii/libogc.a(pad.o)
 .bss.__pad_keys
                0x800ac5e4       0x50 /opt/devkitpro/libogc/lib/wii/libogc.a(pad.o)
 .bss.__pad_origin
                0x800ac634       0x30 /opt/devkitpro/libogc/lib/wii/libogc.a(pad.o)
 *fill*         0x800ac664        0x4 00
 .bss.eximap    0x800ac668       0xc0 /opt/devkitpro/libogc/lib/wii/libogc.a(exi.o)
 .bss.lckdevs   0x800ac728      0x200 /opt/devkitpro/libogc/lib/wii/libogc.a(exi.o)
 .bss._lckdev_queue
                0x800ac928        0xc /opt/devkitpro/libogc/lib/wii/libogc.a(exi.o)
 *fill*         0x800ac934        0x4 00
 .bss.last_exi_idtime
                0x800ac938       0x18 /opt/devkitpro/libogc/lib/wii/libogc.a(exi.o)
 .bss.stdcon    0x800ac950       0x40 /opt/devkitpro/libogc/lib/wii/libogc.a(console.o)
 *(.gnu.linkonce.b.*)
 *(COMMON)
 COMMON         0x800ac990      0xed0 /opt/devkitpro/libogc/lib/wii/libogc.a(lwp_threads.o)
                0x800ac990                _lwp_thr_ready
                0x800ad590                core_context
 COMMON         0x800ad860       0x50 /opt/devkitpro/libogc/lib/wii/libogc.a(lwp.o)
                0x800ad860                _lwp_thr_objects
                0x800ad888                _lwp_tqueue_objects
 COMMON         0x800ad8b0        0xc /opt/devkitpro/libogc/lib/wii/libogc.a(lwp_watchdog.o)
                0x800ad8b0                _wd_ticks_queue
 COMMON         0x800ad8bc       0x1c /opt/devkitpro/libogc/lib/wii/libogc.a(lwp_wkspace.o)
                0x800ad8bc                __wkspace_heap
 *fill*         0x800ad8d8        0x8 00
 COMMON         0x800ad8e0       0x50 /opt/devkitpro/libogc/lib/wii/libogc.a(system.o)
                0x800ad8e0                sramcntrl
 COMMON         0x800ad930       0x28 /opt/devkitpro/libogc/lib/wii/libogc.a(cond.o)
                0x800ad930                _lwp_cond_objects
 COMMON         0x800ad958       0x28 /opt/devkitpro/libogc/lib/wii/libogc.a(message.o)
                0x800ad958                _lwp_mqbox_objects
 COMMON         0x800ad980      0x400 /opt/devkitpro/libogc/lib/wii/libogc.a(newlibc.o)
                0x800ad980                libc_globl_reent
 COMMON         0x800add80       0x40 /opt/devkitpro/libogc/lib/wii/libogc.a(lwp_priority.o)
                0x800add80                _prio_bitmap
 COMMON         0x800addc0       0x3c /opt/devkitpro/libogc/lib/wii/libogc.a(exception.o)
                0x800addc0                _exceptionhandlertable
 COMMON         0x800addfc       0x28 /opt/devkitpro/libogc/lib/wii/libogc.a(semaphore.o)
                0x800addfc                _lwp_sema_objects
 COMMON         0x800ade24       0x28 /opt/devkitpro/libogc/lib/wii/libogc.a(mutex.o)
                0x800ade24                _lwp_mutex_objects
 COMMON         0x800ade4c      0x100 /opt/devkitpro/libogc/lib/wii/libogc.a(kprintf.o)
                0x800ade4c                __outstr
                0x800adf60                . = ALIGN (0x20)
 *fill*         0x800adf4c       0x14 00
                0x800adf60                PROVIDE (__bss_end, .)
                0x800adf60                __bss_end = .
                0x00071720                bss_mem_size = (. - bss_mem_start)
                0x00000100                text_file_start = (text_mem_start - file_start)
                0x00032da0                data_file_start = (data_mem_start - file_start)
                0x00038940                bss_file_start = (bss_mem_start - file_start)
                0x800adf60                _end = .
                0x800adf60                PROVIDE (end, .)

.stab
 *(.stab)

.stabstr
 *(.stabstr)

.stab.excl
 *(.stab.excl)

.stab.exclstr
 *(.stab.exclstr)

.stab.index
 *(.stab.index)

.stab.indexstr
 *(.stab.indexstr)

.comment        0x00000000     0x19bc
 *(.comment)
 .comment       0x00000000        0xe /opt/devkitpro/devkitPPC/lib/gcc/powerpc-gekko/4.2.3/ecrti.o
 .comment       0x0000000e       0x29 /opt/devkitpro/devkitPPC/lib/gcc/powerpc-gekko/4.2.3/crtbegin.o
 .comment       0x00000037       0x29 /opt/devkitpro/devkitPPC/lib/gcc/powerpc-gekko/4.2.3/../../../../powerpc-gekko/lib/crtmain.o
 .comment       0x00000060       0x29 GRRLIB.o
 .comment       0x00000089       0x29 main.o
 .comment       0x000000b2       0x29 /opt/devkitpro/libogc/lib/wii/libwiiuse.a(wpad.o)
 .comment       0x000000db       0x29 /opt/devkitpro/libogc/lib/wii/libwiiuse.a(dynamics.o)
 .comment       0x00000104       0x29 /opt/devkitpro/libogc/lib/wii/libwiiuse.a(io_wii.o)
 .comment       0x0000012d       0x29 /opt/devkitpro/libogc/lib/wii/libwiiuse.a(ir.o)
 .comment       0x00000156       0x29 /opt/devkitpro/libogc/lib/wii/libwiiuse.a(wiiuse.o)
 .comment       0x0000017f       0x29 /opt/devkitpro/libogc/lib/wii/libwiiuse.a(events.o)
 .comment       0x000001a8       0x29 /opt/devkitpro/libogc/lib/wii/libwiiuse.a(guitar_hero_3.o)
 .comment       0x000001d1       0x29 /opt/devkitpro/libogc/lib/wii/libwiiuse.a(io.o)
 .comment       0x000001fa       0x29 /opt/devkitpro/libogc/lib/wii/libwiiuse.a(nunchuk.o)
 .comment       0x00000223       0x29 /opt/devkitpro/libogc/lib/wii/libwiiuse.a(classic.o)
 .comment       0x0000024c       0x29 /opt/devkitpro/libogc/lib/wii/libbte.a(bte.o)
 .comment       0x00000275       0x29 /opt/devkitpro/libogc/lib/wii/libbte.a(hci.o)
 .comment       0x0000029e       0x29 /opt/devkitpro/libogc/lib/wii/libbte.a(l2cap.o)
 .comment       0x000002c7       0x29 /opt/devkitpro/libogc/lib/wii/libbte.a(btmemb.o)
 .comment       0x000002f0       0x29 /opt/devkitpro/libogc/lib/wii/libbte.a(btmemr.o)
 .comment       0x00000319       0x29 /opt/devkitpro/libogc/lib/wii/libbte.a(btpbuf.o)
 .comment       0x00000342       0x29 /opt/devkitpro/libogc/lib/wii/libbte.a(physbusif.o)
 .comment       0x0000036b       0x29 /opt/devkitpro/libogc/lib/wii/libogc.a(lwp_queue.o)
 .comment       0x00000394       0x29 /opt/devkitpro/libogc/lib/wii/libogc.a(lwp_threads.o)
 .comment       0x000003bd       0x29 /opt/devkitpro/libogc/lib/wii/libogc.a(lwp.o)
 .comment       0x000003e6       0x29 /opt/devkitpro/libogc/lib/wii/libogc.a(lwp_stack.o)
 .comment       0x0000040f       0x29 /opt/devkitpro/libogc/lib/wii/libogc.a(lwp_watchdog.o)
 .comment       0x00000438       0x29 /opt/devkitpro/libogc/lib/wii/libogc.a(lwp_wkspace.o)
 .comment       0x00000461       0x29 /opt/devkitpro/libogc/lib/wii/libogc.a(lwp_objmgr.o)
 .comment       0x0000048a       0x29 /opt/devkitpro/libogc/lib/wii/libogc.a(lwp_heap.o)
 .comment       0x000004b3       0x29 /opt/devkitpro/libogc/lib/wii/libogc.a(sys_state.o)
 .comment       0x000004dc       0x29 /opt/devkitpro/libogc/lib/wii/libogc.a(irq.o)
 .comment       0x00000505       0x29 /opt/devkitpro/libogc/lib/wii/libogc.a(video.o)
 .comment       0x0000052e       0x29 /opt/devkitpro/libogc/lib/wii/libogc.a(system.o)
 .comment       0x00000557       0x29 /opt/devkitpro/libogc/lib/wii/libogc.a(cond.o)
 .comment       0x00000580       0x29 /opt/devkitpro/libogc/lib/wii/libogc.a(gx.o)
 .comment       0x000005a9       0x29 /opt/devkitpro/libogc/lib/wii/libogc.a(gu.o)
 .comment       0x000005d2       0x29 /opt/devkitpro/libogc/lib/wii/libogc.a(decrementer.o)
 .comment       0x000005fb       0x29 /opt/devkitpro/libogc/lib/wii/libogc.a(message.o)
 .comment       0x00000624       0x29 /opt/devkitpro/libogc/lib/wii/libogc.a(si.o)
 .comment       0x0000064d       0x29 /opt/devkitpro/libogc/lib/wii/libogc.a(ipc.o)
 .comment       0x00000676       0x29 /opt/devkitpro/libogc/lib/wii/libogc.a(timesupp.o)
 .comment       0x0000069f       0x29 /opt/devkitpro/libogc/lib/wii/libogc.a(lock_supp.o)
 .comment       0x000006c8       0x29 /opt/devkitpro/libogc/lib/wii/libogc.a(newlibc.o)
 .comment       0x000006f1       0x29 /opt/devkitpro/libogc/lib/wii/libogc.a(sbrk.o)
 .comment       0x0000071a       0x29 /opt/devkitpro/libogc/lib/wii/libogc.a(malloc_lock.o)
 .comment       0x00000743       0x29 /opt/devkitpro/libogc/lib/wii/libogc.a(stm.o)
 .comment       0x0000076c       0x29 /opt/devkitpro/libogc/lib/wii/libogc.a(ios.o)
 .comment       0x00000795       0x29 /opt/devkitpro/libogc/lib/wii/libogc.a(es.o)
 .comment       0x000007be       0x29 /opt/devkitpro/libogc/lib/wii/libogc.a(usb.o)
 .comment       0x000007e7       0x29 /opt/devkitpro/libogc/lib/wii/libogc.a(argv.o)
 .comment       0x00000810       0x29 /opt/devkitpro/libogc/lib/wii/libogc.a(conf.o)
 .comment       0x00000839       0x29 /opt/devkitpro/libogc/lib/wii/libogc.a(lwp_priority.o)
 .comment       0x00000862       0x29 /opt/devkitpro/libogc/lib/wii/libogc.a(lwp_threadq.o)
 .comment       0x0000088b       0x29 /opt/devkitpro/libogc/lib/wii/libogc.a(lwp_messages.o)
 .comment       0x000008b4       0x29 /opt/devkitpro/libogc/lib/wii/libogc.a(lwp_mutex.o)
 .comment       0x000008dd       0x29 /opt/devkitpro/libogc/lib/wii/libogc.a(exception.o)
 .comment       0x00000906       0x29 /opt/devkitpro/libogc/lib/wii/libogc.a(semaphore.o)
 .comment       0x0000092f       0x29 /opt/devkitpro/libogc/lib/wii/libogc.a(pad.o)
 .comment       0x00000958       0x29 /opt/devkitpro/libogc/lib/wii/libogc.a(exi.o)
 .comment       0x00000981       0x29 /opt/devkitpro/libogc/lib/wii/libogc.a(mutex.o)
 .comment       0x000009aa       0x29 /opt/devkitpro/libogc/lib/wii/libogc.a(kprintf.o)
 .comment       0x000009d3       0x29 /opt/devkitpro/libogc/lib/wii/libogc.a(console.o)
 .comment       0x000009fc       0x29 /opt/devkitpro/libogc/lib/wii/libogc.a(lwp_sema.o)
 .comment       0x00000a25       0x29 /opt/devkitpro/libogc/lib/wii/libogc.a(console_font_8x16.o)
 .comment       0x00000a4e       0x29 /opt/devkitpro/devkitPPC/lib/gcc/powerpc-gekko/4.2.3/../../../../powerpc-gekko/lib/libm.a(lib_a-s_atan2.o)
 .comment       0x00000a77       0x29 /opt/devkitpro/devkitPPC/lib/gcc/powerpc-gekko/4.2.3/../../../../powerpc-gekko/lib/libm.a(lib_a-s_atangent.o)
 .comment       0x00000aa0       0x29 /opt/devkitpro/devkitPPC/lib/gcc/powerpc-gekko/4.2.3/../../../../powerpc-gekko/lib/libm.a(lib_a-s_cos.o)
 .comment       0x00000ac9       0x29 /opt/devkitpro/devkitPPC/lib/gcc/powerpc-gekko/4.2.3/../../../../powerpc-gekko/lib/libm.a(lib_a-s_fabs.o)
 .comment       0x00000af2       0x29 /opt/devkitpro/devkitPPC/lib/gcc/powerpc-gekko/4.2.3/../../../../powerpc-gekko/lib/libm.a(lib_a-s_frexp.o)
 .comment       0x00000b1b       0x29 /opt/devkitpro/devkitPPC/lib/gcc/powerpc-gekko/4.2.3/../../../../powerpc-gekko/lib/libm.a(lib_a-s_mathcnst.o)
 .comment       0x00000b44       0x29 /opt/devkitpro/devkitPPC/lib/gcc/powerpc-gekko/4.2.3/../../../../powerpc-gekko/lib/libm.a(lib_a-s_numtest.o)
 .comment       0x00000b6d       0x29 /opt/devkitpro/devkitPPC/lib/gcc/powerpc-gekko/4.2.3/../../../../powerpc-gekko/lib/libm.a(lib_a-s_sin.o)
 .comment       0x00000b96       0x29 /opt/devkitpro/devkitPPC/lib/gcc/powerpc-gekko/4.2.3/../../../../powerpc-gekko/lib/libm.a(lib_a-s_sine.o)
 .comment       0x00000bbf       0x29 /opt/devkitpro/devkitPPC/lib/gcc/powerpc-gekko/4.2.3/../../../../powerpc-gekko/lib/libm.a(lib_a-s_sqrt.o)
 .comment       0x00000be8       0x29 /opt/devkitpro/devkitPPC/lib/gcc/powerpc-gekko/4.2.3/../../../../powerpc-gekko/lib/libm.a(lib_a-sf_atan.o)
 .comment       0x00000c11       0x29 /opt/devkitpro/devkitPPC/lib/gcc/powerpc-gekko/4.2.3/../../../../powerpc-gekko/lib/libm.a(lib_a-sf_atan2.o)
 .comment       0x00000c3a       0x29 /opt/devkitpro/devkitPPC/lib/gcc/powerpc-gekko/4.2.3/../../../../powerpc-gekko/lib/libm.a(lib_a-sf_atangent.o)
 .comment       0x00000c63       0x29 /opt/devkitpro/devkitPPC/lib/gcc/powerpc-gekko/4.2.3/../../../../powerpc-gekko/lib/libm.a(lib_a-sf_cos.o)
 .comment       0x00000c8c       0x29 /opt/devkitpro/devkitPPC/lib/gcc/powerpc-gekko/4.2.3/../../../../powerpc-gekko/lib/libm.a(lib_a-sf_fabs.o)
 .comment       0x00000cb5       0x29 /opt/devkitpro/devkitPPC/lib/gcc/powerpc-gekko/4.2.3/../../../../powerpc-gekko/lib/libm.a(lib_a-sf_frexp.o)
 .comment       0x00000cde       0x29 /opt/devkitpro/devkitPPC/lib/gcc/powerpc-gekko/4.2.3/../../../../powerpc-gekko/lib/libm.a(lib_a-sf_isinff.o)
 .comment       0x00000d07       0x29 /opt/devkitpro/devkitPPC/lib/gcc/powerpc-gekko/4.2.3/../../../../powerpc-gekko/lib/libm.a(lib_a-sf_isnanf.o)
 .comment       0x00000d30       0x29 /opt/devkitpro/devkitPPC/lib/gcc/powerpc-gekko/4.2.3/../../../../powerpc-gekko/lib/libm.a(lib_a-sf_numtest.o)
 .comment       0x00000d59       0x29 /opt/devkitpro/devkitPPC/lib/gcc/powerpc-gekko/4.2.3/../../../../powerpc-gekko/lib/libm.a(lib_a-sf_sin.o)
 .comment       0x00000d82       0x29 /opt/devkitpro/devkitPPC/lib/gcc/powerpc-gekko/4.2.3/../../../../powerpc-gekko/lib/libm.a(lib_a-sf_sine.o)
 .comment       0x00000dab       0x29 /opt/devkitpro/devkitPPC/lib/gcc/powerpc-gekko/4.2.3/../../../../powerpc-gekko/lib/libm.a(lib_a-sf_sqrt.o)
 .comment       0x00000dd4       0x29 /opt/devkitpro/devkitPPC/lib/gcc/powerpc-gekko/4.2.3/../../../../powerpc-gekko/lib/libm.a(lib_a-sf_tan.o)
 .comment       0x00000dfd       0x29 /opt/devkitpro/devkitPPC/lib/gcc/powerpc-gekko/4.2.3/../../../../powerpc-gekko/lib/libm.a(lib_a-s_ispos.o)
 .comment       0x00000e26       0x29 /opt/devkitpro/devkitPPC/lib/gcc/powerpc-gekko/4.2.3/../../../../powerpc-gekko/lib/libm.a(lib_a-s_ldexp.o)
 .comment       0x00000e4f       0x29 /opt/devkitpro/devkitPPC/lib/gcc/powerpc-gekko/4.2.3/../../../../powerpc-gekko/lib/libm.a(lib_a-sf_ispos.o)
 .comment       0x00000e78       0x29 /opt/devkitpro/devkitPPC/lib/gcc/powerpc-gekko/4.2.3/../../../../powerpc-gekko/lib/libm.a(lib_a-sf_ldexp.o)
 .comment       0x00000ea1       0x29 /opt/devkitpro/devkitPPC/lib/gcc/powerpc-gekko/4.2.3/libgcc.a(_udivdi3.o)
 .comment       0x00000eca       0x29 /opt/devkitpro/devkitPPC/lib/gcc/powerpc-gekko/4.2.3/../../../../powerpc-gekko/lib/libsysbase.a(abort.o)
 .comment       0x00000ef3       0x29 /opt/devkitpro/devkitPPC/lib/gcc/powerpc-gekko/4.2.3/../../../../powerpc-gekko/lib/libsysbase.a(iosupport.o)
 .comment       0x00000f1c       0x29 /opt/devkitpro/devkitPPC/lib/gcc/powerpc-gekko/4.2.3/../../../../powerpc-gekko/lib/libsysbase.a(_exit.o)
 .comment       0x00000f45       0x29 /opt/devkitpro/devkitPPC/lib/gcc/powerpc-gekko/4.2.3/../../../../powerpc-gekko/lib/libsysbase.a(build_argv.o)
 .comment       0x00000f6e       0x29 /opt/devkitpro/devkitPPC/lib/gcc/powerpc-gekko/4.2.3/../../../../powerpc-gekko/lib/libsysbase.a(syscall_support.o)
 .comment       0x00000f97       0x29 /opt/devkitpro/devkitPPC/lib/gcc/powerpc-gekko/4.2.3/../../../../powerpc-gekko/lib/libc.a(lib_a-calloc.o)
 .comment       0x00000fc0       0x29 /opt/devkitpro/devkitPPC/lib/gcc/powerpc-gekko/4.2.3/../../../../powerpc-gekko/lib/libc.a(lib_a-callocr.o)
 .comment       0x00000fe9       0x29 /opt/devkitpro/devkitPPC/lib/gcc/powerpc-gekko/4.2.3/../../../../powerpc-gekko/lib/libc.a(lib_a-ctype_.o)
 .comment       0x00001012       0x29 /opt/devkitpro/devkitPPC/lib/gcc/powerpc-gekko/4.2.3/../../../../powerpc-gekko/lib/libc.a(lib_a-errno.o)
 .comment       0x0000103b       0x29 /opt/devkitpro/devkitPPC/lib/gcc/powerpc-gekko/4.2.3/../../../../powerpc-gekko/lib/libc.a(lib_a-exit.o)
 .comment       0x00001064       0x29 /opt/devkitpro/devkitPPC/lib/gcc/powerpc-gekko/4.2.3/../../../../powerpc-gekko/lib/libc.a(lib_a-fprintf.o)
 .comment       0x0000108d       0x29 /opt/devkitpro/devkitPPC/lib/gcc/powerpc-gekko/4.2.3/../../../../powerpc-gekko/lib/libc.a(lib_a-fwrite.o)
 .comment       0x000010b6       0x29 /opt/devkitpro/devkitPPC/lib/gcc/powerpc-gekko/4.2.3/../../../../powerpc-gekko/lib/libc.a(lib_a-impure.o)
 .comment       0x000010df       0x29 /opt/devkitpro/devkitPPC/lib/gcc/powerpc-gekko/4.2.3/../../../../powerpc-gekko/lib/libc.a(lib_a-malign.o)
 .comment       0x00001108       0x29 /opt/devkitpro/devkitPPC/lib/gcc/powerpc-gekko/4.2.3/../../../../powerpc-gekko/lib/libc.a(lib_a-malignr.o)
 .comment       0x00001131       0x29 /opt/devkitpro/devkitPPC/lib/gcc/powerpc-gekko/4.2.3/../../../../powerpc-gekko/lib/libc.a(lib_a-malloc.o)
 .comment       0x0000115a       0x29 /opt/devkitpro/devkitPPC/lib/gcc/powerpc-gekko/4.2.3/../../../../powerpc-gekko/lib/libc.a(lib_a-mallocr.o)
 .comment       0x00001183       0x29 /opt/devkitpro/devkitPPC/lib/gcc/powerpc-gekko/4.2.3/../../../../powerpc-gekko/lib/libc.a(lib_a-memcmp.o)
 .comment       0x000011ac       0x29 /opt/devkitpro/devkitPPC/lib/gcc/powerpc-gekko/4.2.3/../../../../powerpc-gekko/lib/libc.a(lib_a-memcpy.o)
 .comment       0x000011d5       0x29 /opt/devkitpro/devkitPPC/lib/gcc/powerpc-gekko/4.2.3/../../../../powerpc-gekko/lib/libc.a(lib_a-memmove.o)
 .comment       0x000011fe       0x29 /opt/devkitpro/devkitPPC/lib/gcc/powerpc-gekko/4.2.3/../../../../powerpc-gekko/lib/libc.a(lib_a-memset.o)
 .comment       0x00001227       0x29 /opt/devkitpro/devkitPPC/lib/gcc/powerpc-gekko/4.2.3/../../../../powerpc-gekko/lib/libc.a(lib_a-printf.o)
 .comment       0x00001250       0x29 /opt/devkitpro/devkitPPC/lib/gcc/powerpc-gekko/4.2.3/../../../../powerpc-gekko/lib/libc.a(lib_a-puts.o)
 .comment       0x00001279       0x29 /opt/devkitpro/devkitPPC/lib/gcc/powerpc-gekko/4.2.3/../../../../powerpc-gekko/lib/libc.a(lib_a-reent.o)
 .comment       0x000012a2       0x29 /opt/devkitpro/devkitPPC/lib/gcc/powerpc-gekko/4.2.3/../../../../powerpc-gekko/lib/libc.a(lib_a-setvbuf.o)
 .comment       0x000012cb       0x29 /opt/devkitpro/devkitPPC/lib/gcc/powerpc-gekko/4.2.3/../../../../powerpc-gekko/lib/libc.a(lib_a-snprintf.o)
 .comment       0x000012f4       0x29 /opt/devkitpro/devkitPPC/lib/gcc/powerpc-gekko/4.2.3/../../../../powerpc-gekko/lib/libc.a(lib_a-strchr.o)
 .comment       0x0000131d       0x29 /opt/devkitpro/devkitPPC/lib/gcc/powerpc-gekko/4.2.3/../../../../powerpc-gekko/lib/libc.a(lib_a-strcmp.o)
 .comment       0x00001346       0x29 /opt/devkitpro/devkitPPC/lib/gcc/powerpc-gekko/4.2.3/../../../../powerpc-gekko/lib/libc.a(lib_a-strlen.o)
 .comment       0x0000136f       0x29 /opt/devkitpro/devkitPPC/lib/gcc/powerpc-gekko/4.2.3/../../../../powerpc-gekko/lib/libc.a(lib_a-strncmp.o)
 .comment       0x00001398       0x29 /opt/devkitpro/devkitPPC/lib/gcc/powerpc-gekko/4.2.3/../../../../powerpc-gekko/lib/libc.a(lib_a-strncpy.o)
 .comment       0x000013c1       0x29 /opt/devkitpro/devkitPPC/lib/gcc/powerpc-gekko/4.2.3/../../../../powerpc-gekko/lib/libc.a(lib_a-strnlen.o)
 .comment       0x000013ea       0x29 /opt/devkitpro/devkitPPC/lib/gcc/powerpc-gekko/4.2.3/../../../../powerpc-gekko/lib/libc.a(lib_a-syswrite.o)
 .comment       0x00001413       0x29 /opt/devkitpro/devkitPPC/lib/gcc/powerpc-gekko/4.2.3/../../../../powerpc-gekko/lib/libc.a(lib_a-vfprintf.o)
 .comment       0x0000143c       0x29 /opt/devkitpro/devkitPPC/lib/gcc/powerpc-gekko/4.2.3/../../../../powerpc-gekko/lib/libc.a(lib_a-vsprintf.o)
 .comment       0x00001465       0x29 /opt/devkitpro/devkitPPC/lib/gcc/powerpc-gekko/4.2.3/../../../../powerpc-gekko/lib/libc.a(lib_a-wcrtomb.o)
 .comment       0x0000148e       0x29 /opt/devkitpro/devkitPPC/lib/gcc/powerpc-gekko/4.2.3/../../../../powerpc-gekko/lib/libc.a(lib_a-wcsrtombs.o)
 .comment       0x000014b7       0x29 /opt/devkitpro/devkitPPC/lib/gcc/powerpc-gekko/4.2.3/../../../../powerpc-gekko/lib/libc.a(lib_a-wctomb_r.o)
 .comment       0x000014e0       0x29 /opt/devkitpro/devkitPPC/lib/gcc/powerpc-gekko/4.2.3/../../../../powerpc-gekko/lib/libc.a(lib_a-wsetup.o)
 .comment       0x00001509       0x29 /opt/devkitpro/devkitPPC/lib/gcc/powerpc-gekko/4.2.3/../../../../powerpc-gekko/lib/libc.a(lib_a-__call_atexit.o)
 .comment       0x00001532       0x29 /opt/devkitpro/devkitPPC/lib/gcc/powerpc-gekko/4.2.3/../../../../powerpc-gekko/lib/libc.a(lib_a-dtoa.o)
 .comment       0x0000155b       0x29 /opt/devkitpro/devkitPPC/lib/gcc/powerpc-gekko/4.2.3/../../../../powerpc-gekko/lib/libc.a(lib_a-fflush.o)
 .comment       0x00001584       0x29 /opt/devkitpro/devkitPPC/lib/gcc/powerpc-gekko/4.2.3/../../../../powerpc-gekko/lib/libc.a(lib_a-findfp.o)
 .comment       0x000015ad       0x29 /opt/devkitpro/devkitPPC/lib/gcc/powerpc-gekko/4.2.3/../../../../powerpc-gekko/lib/libc.a(lib_a-freer.o)
 .comment       0x000015d6       0x29 /opt/devkitpro/devkitPPC/lib/gcc/powerpc-gekko/4.2.3/../../../../powerpc-gekko/lib/libc.a(lib_a-fvwrite.o)
 .comment       0x000015ff       0x29 /opt/devkitpro/devkitPPC/lib/gcc/powerpc-gekko/4.2.3/../../../../powerpc-gekko/lib/libc.a(lib_a-fwalk.o)
 .comment       0x00001628       0x29 /opt/devkitpro/devkitPPC/lib/gcc/powerpc-gekko/4.2.3/../../../../powerpc-gekko/lib/libc.a(lib_a-locale.o)
 .comment       0x00001651       0x29 /opt/devkitpro/devkitPPC/lib/gcc/powerpc-gekko/4.2.3/../../../../powerpc-gekko/lib/libc.a(lib_a-makebuf.o)
 .comment       0x0000167a       0x29 /opt/devkitpro/devkitPPC/lib/gcc/powerpc-gekko/4.2.3/../../../../powerpc-gekko/lib/libc.a(lib_a-mbtowc_r.o)
 .comment       0x000016a3       0x29 /opt/devkitpro/devkitPPC/lib/gcc/powerpc-gekko/4.2.3/../../../../powerpc-gekko/lib/libc.a(lib_a-memchr.o)
 .comment       0x000016cc       0x29 /opt/devkitpro/devkitPPC/lib/gcc/powerpc-gekko/4.2.3/../../../../powerpc-gekko/lib/libc.a(lib_a-mprec.o)
 .comment       0x000016f5       0x29 /opt/devkitpro/devkitPPC/lib/gcc/powerpc-gekko/4.2.3/../../../../powerpc-gekko/lib/libc.a(lib_a-reallocr.o)
 .comment       0x0000171e       0x29 /opt/devkitpro/devkitPPC/lib/gcc/powerpc-gekko/4.2.3/../../../../powerpc-gekko/lib/libc.a(lib_a-s_isinfd.o)
 .comment       0x00001747       0x29 /opt/devkitpro/devkitPPC/lib/gcc/powerpc-gekko/4.2.3/../../../../powerpc-gekko/lib/libc.a(lib_a-s_isnand.o)
 .comment       0x00001770       0x29 /opt/devkitpro/devkitPPC/lib/gcc/powerpc-gekko/4.2.3/../../../../powerpc-gekko/lib/libc.a(lib_a-stdio.o)
 .comment       0x00001799       0x29 /opt/devkitpro/devkitPPC/lib/gcc/powerpc-gekko/4.2.3/../../../../powerpc-gekko/lib/libc.a(lib_a-strcpy.o)
 .comment       0x000017c2       0x29 /opt/devkitpro/devkitPPC/lib/gcc/powerpc-gekko/4.2.3/../../../../powerpc-gekko/lib/libc.a(lib_a-fclose.o)
 .comment       0x000017eb       0x29 /opt/devkitpro/devkitPPC/lib/gcc/powerpc-gekko/4.2.3/../../../../powerpc-gekko/lib/libsysbase.a(close.o)
 .comment       0x00001814       0x29 /opt/devkitpro/devkitPPC/lib/gcc/powerpc-gekko/4.2.3/../../../../powerpc-gekko/lib/libsysbase.a(fstat.o)
 .comment       0x0000183d       0x29 /opt/devkitpro/devkitPPC/lib/gcc/powerpc-gekko/4.2.3/../../../../powerpc-gekko/lib/libsysbase.a(isatty.o)
 .comment       0x00001866       0x29 /opt/devkitpro/devkitPPC/lib/gcc/powerpc-gekko/4.2.3/../../../../powerpc-gekko/lib/libsysbase.a(lseek.o)
 .comment       0x0000188f       0x29 /opt/devkitpro/devkitPPC/lib/gcc/powerpc-gekko/4.2.3/../../../../powerpc-gekko/lib/libsysbase.a(read.o)
 .comment       0x000018b8       0x29 /opt/devkitpro/devkitPPC/lib/gcc/powerpc-gekko/4.2.3/../../../../powerpc-gekko/lib/libsysbase.a(sbrk.o)
 .comment       0x000018e1       0x29 /opt/devkitpro/devkitPPC/lib/gcc/powerpc-gekko/4.2.3/../../../../powerpc-gekko/lib/libsysbase.a(write.o)
 .comment       0x0000190a       0x29 /opt/devkitpro/devkitPPC/lib/gcc/powerpc-gekko/4.2.3/../../../../powerpc-gekko/lib/libsysbase.a(flock.o)
 .comment       0x00001933       0x29 /opt/devkitpro/devkitPPC/lib/gcc/powerpc-gekko/4.2.3/../../../../powerpc-gekko/lib/libsysbase.a(handle_manager.o)
 .comment       0x0000195c       0x29 /opt/devkitpro/devkitPPC/lib/gcc/powerpc-gekko/4.2.3/libgcc.a(_umoddi3.o)
 .comment       0x00001985       0x29 /opt/devkitpro/devkitPPC/lib/gcc/powerpc-gekko/4.2.3/crtend.o
 .comment       0x000019ae        0xe /opt/devkitpro/devkitPPC/lib/gcc/powerpc-gekko/4.2.3/ecrtn.o

.debug
 *(.debug)

.line
 *(.line)

.debug_srcinfo
 *(.debug_srcinfo)

.debug_sfnames
 *(.debug_sfnames)

.debug_aranges  0x00000000       0xe8
 *(.debug_aranges)
 .debug_aranges
                0x00000000       0x20 /opt/devkitpro/devkitPPC/lib/gcc/powerpc-gekko/4.2.3/../../../../powerpc-gekko/lib/crtmain.o
 .debug_aranges
                0x00000020       0xa0 GRRLIB.o
 .debug_aranges
                0x000000c0       0x28 main.o

.debug_pubnames
                0x00000000      0x19b
 *(.debug_pubnames)
 .debug_pubnames
                0x00000000       0x20 /opt/devkitpro/devkitPPC/lib/gcc/powerpc-gekko/4.2.3/../../../../powerpc-gekko/lib/crtmain.o
 .debug_pubnames
                0x00000020      0x160 GRRLIB.o
 .debug_pubnames
                0x00000180       0x1b main.o

.debug_info     0x00000000     0x1230
 *(.debug_info)
 .debug_info    0x00000000       0xf8 /opt/devkitpro/devkitPPC/lib/gcc/powerpc-gekko/4.2.3/../../../../powerpc-gekko/lib/crtmain.o
 .debug_info    0x000000f8      0xc3b GRRLIB.o
 .debug_info    0x00000d33      0x4fd main.o

.debug_abbrev   0x00000000      0x45b
 *(.debug_abbrev)
 .debug_abbrev  0x00000000       0x7c /opt/devkitpro/devkitPPC/lib/gcc/powerpc-gekko/4.2.3/../../../../powerpc-gekko/lib/crtmain.o
 .debug_abbrev  0x0000007c      0x273 GRRLIB.o
 .debug_abbrev  0x000002ef      0x16c main.o

.debug_line     0x00000000      0x611
 *(.debug_line)
 .debug_line    0x00000000       0x8c /opt/devkitpro/devkitPPC/lib/gcc/powerpc-gekko/4.2.3/../../../../powerpc-gekko/lib/crtmain.o
 .debug_line    0x0000008c      0x46b GRRLIB.o
 .debug_line    0x000004f7      0x11a main.o

.debug_frame    0x00000000      0x2b8
 *(.debug_frame)
 .debug_frame   0x00000000       0x30 /opt/devkitpro/devkitPPC/lib/gcc/powerpc-gekko/4.2.3/../../../../powerpc-gekko/lib/crtmain.o
 .debug_frame   0x00000030      0x258 GRRLIB.o
 .debug_frame   0x00000288       0x30 main.o

.debug_str      0x00000000      0x563
 *(.debug_str)
 .debug_str     0x00000000      0x10e /opt/devkitpro/devkitPPC/lib/gcc/powerpc-gekko/4.2.3/../../../../powerpc-gekko/lib/crtmain.o
                                0x14c (size before relaxing)
 .debug_str     0x0000010e      0x2e1 GRRLIB.o
                                0x3a8 (size before relaxing)
 .debug_str     0x000003ef      0x174 main.o
                                0x2f5 (size before relaxing)

.debug_loc      0x00000000      0xa4d
 *(.debug_loc)
 .debug_loc     0x00000000       0x1f /opt/devkitpro/devkitPPC/lib/gcc/powerpc-gekko/4.2.3/../../../../powerpc-gekko/lib/crtmain.o
 .debug_loc     0x0000001f      0x9e8 GRRLIB.o
 .debug_loc     0x00000a07       0x46 main.o

.debug_macinfo
 *(.debug_macinfo)

.debug_weaknames
 *(.debug_weaknames)

.debug_funcnames
 *(.debug_funcnames)

.debug_typenames
 *(.debug_typenames)

.debug_varnames
 *(.debug_varnames)
                0x00000000                __isIPL = 0x0
                0x800cdf60                __stack_addr = ((((__bss_start + SIZEOF (.bss)) + 0x20000) + 0x7) & 0xfffffff8)
                0x800adf60                __stack_end = (__bss_start + SIZEOF (.bss))
                0x800d1f60                __intrstack_addr = (__stack_addr + 0x4000)
                0x800cdf60                __intrstack_end = __stack_addr
                0x800d1f60                __Arena1Lo = ((__intrstack_addr + 0x1f) & 0xffffffe0)
                0x816ffff0                __Arena1Hi = 0x816ffff0
                0x90000800                __Arena2Lo = 0x90000800
                0x933e0000                __Arena2Hi = 0x933e0000
                0x81700000                __gxregs = ((__Arena1Hi + 0x1f) & 0xffffffe0)
                0x933e0000                __ipcbufferLo = 0x933e0000
                0x93400000                __ipcbufferHi = 0x93400000
                0x816ffff0                PROVIDE (__stack, 0x816ffff0)
                [0x00000000]                PROVIDE (__isIPL, __isIPL)
                0x80004000                PROVIDE (__text_start, text_mem_start)
                0x00000100                PROVIDE (__text_fstart, text_file_start)
                0x80036ca0                PROVIDE (__data_start, data_mem_start)
                0x00032da0                PROVIDE (__data_fstart, data_file_start)
                0x8003c840                PROVIDE (__bss_start, bss_mem_start)
                0x00038940                PROVIDE (__bss_fstart, bss_file_start)
                [0x800cdf60]                PROVIDE (__stack_addr, __stack_addr)
                [0x800adf60]                PROVIDE (__stack_end, __stack_end)
                [0x800d1f60]                PROVIDE (__intrstack_addr, __intrstack_addr)
                [0x800cdf60]                PROVIDE (__intrstack_end, __intrstack_end)
                [0x800d1f60]                PROVIDE (__Arena1Lo, __Arena1Lo)
                [0x816ffff0]                PROVIDE (__Arena1Hi, __Arena1Hi)
                [0x90000800]                PROVIDE (__Arena2Lo, __Arena2Lo)
                [0x933e0000]                PROVIDE (__Arena2Hi, __Arena2Hi)
                [0x933e0000]                PROVIDE (__ipcbufferLo, __ipcbufferLo)
                [0x93400000]                PROVIDE (__ipcbufferHi, __ipcbufferHi)
                [0x81700000]                PROVIDE (__gxregs, __gxregs)
LOAD /opt/devkitpro/devkitPPC/lib/gcc/powerpc-gekko/4.2.3/ecrti.o
LOAD /opt/devkitpro/devkitPPC/lib/gcc/powerpc-gekko/4.2.3/crtbegin.o
LOAD /opt/devkitpro/devkitPPC/lib/gcc/powerpc-gekko/4.2.3/../../../../powerpc-gekko/lib/crtmain.o
LOAD GRRLIB.o
LOAD main.o
LOAD /opt/devkitpro/libogc/lib/wii/libwiiuse.a
LOAD /opt/devkitpro/libogc/lib/wii/libbte.a
LOAD /opt/devkitpro/libogc/lib/wii/libogc.a
LOAD /opt/devkitpro/devkitPPC/lib/gcc/powerpc-gekko/4.2.3/../../../../powerpc-gekko/lib/libm.a
LOAD /opt/devkitpro/devkitPPC/lib/gcc/powerpc-gekko/4.2.3/libgcc.a
START GROUP
LOAD /opt/devkitpro/devkitPPC/lib/gcc/powerpc-gekko/4.2.3/../../../../powerpc-gekko/lib/libsysbase.a
LOAD /opt/devkitpro/devkitPPC/lib/gcc/powerpc-gekko/4.2.3/../../../../powerpc-gekko/lib/libc.a
END GROUP
LOAD /opt/devkitpro/devkitPPC/lib/gcc/powerpc-gekko/4.2.3/libgcc.a
LOAD /opt/devkitpro/devkitPPC/lib/gcc/powerpc-gekko/4.2.3/crtsavres.o
LOAD /opt/devkitpro/devkitPPC/lib/gcc/powerpc-gekko/4.2.3/crtend.o
LOAD /opt/devkitpro/devkitPPC/lib/gcc/powerpc-gekko/4.2.3/ecrtn.o
OUTPUT(/Users/Tom/Desktop/WiiBrew/IRTest/IRTest.elf elf32-powerpc)

.debug_ranges   0x00000000       0x80
 .debug_ranges  0x00000000       0x80 GRRLIB.o
